******************************************************************************
        TMS320C2000 COFF Linker PC v5.0.1                      
******************************************************************************
>> Linked Tue Oct 18 16:25:20 2011

OUTPUT FILE NAME:   <./Debug/back2back.out>
ENTRY POINT SYMBOL: "_c_int00"  address: 0000d75f


MEMORY CONFIGURATION

         name            origin    length      used     unused   attr    fill
----------------------  --------  ---------  --------  --------  ----  --------
PAGE 0:
  BEGIN                 00000000   00000002  00000002  00000000  RWIX
  BOOT_RSVD             00000002   0000004e  00000000  0000004e  RWIX
  RAMM0                 00000050   000003b0  00000000  000003b0  RWIX
  RAML0                 00008000   00000500  00000491  0000006f  RWIX
  RAML1                 00008500   00006000  000055a2  00000a5e  RWIX
  ZONE7A                00200000   0000fc00  00000000  0000fc00  RWIX
  CSM_RSVD              0033ff80   00000076  00000000  00000076  RWIX
  CSM_PWL               0033fff8   00000008  00000000  00000008  RWIX
  ADC_CAL               00380080   00000009  00000007  00000002  RWIX
  IQTABLES              003fe000   00000b50  00000000  00000b50  RWIX
  IQTABLES2             003feb50   0000008c  00000000  0000008c  RWIX
  FPUTABLES             003febdc   000006a0  00000000  000006a0  RWIX
  BOOTROM               003ff27c   00000d44  00000000  00000d44  RWIX
  RESET                 003fffc0   00000002  00000000  00000002  RWIX

PAGE 1:
  RAMM1                 00000400   00000400  00000300  00000100  RWIX
  DEV_EMU               00000880   00000180  000000d0  000000b0  RWIX
  FLASH_REGS            00000a80   00000060  00000008  00000058  RWIX
  CSM                   00000ae0   00000010  00000010  00000000  RWIX
  ADC_MIRROR            00000b00   00000010  00000010  00000000  RWIX
  XINTF                 00000b20   00000020  0000001e  00000002  RWIX
  CPU_TIMER0            00000c00   00000008  00000008  00000000  RWIX
  CPU_TIMER1            00000c08   00000008  00000008  00000000  RWIX
  CPU_TIMER2            00000c10   00000008  00000008  00000000  RWIX
  PIE_CTRL              00000ce0   00000020  0000001a  00000006  RWIX
  PIE_VECT              00000d00   00000100  00000100  00000000  RWIX
  DMA                   00001000   00000200  000000e0  00000120  RWIX
  ZONE0                 00004000   00001000  00000100  00000f00  RWIX
  MCBSPA                00005000   00000040  00000025  0000001b  RWIX
  MCBSPB                00005040   00000040  00000025  0000001b  RWIX
  ECANA                 00006000   00000040  00000034  0000000c  RWIX
  ECANA_LAM             00006040   00000040  00000040  00000000  RWIX
  ECANA_MOTS            00006080   00000040  00000040  00000000  RWIX
  ECANA_MOTO            000060c0   00000040  00000040  00000000  RWIX
  ECANA_MBOX            00006100   00000100  00000100  00000000  RWIX
  ECANB                 00006200   00000040  00000034  0000000c  RWIX
  ECANB_LAM             00006240   00000040  00000040  00000000  RWIX
  ECANB_MOTS            00006280   00000040  00000040  00000000  RWIX
  ECANB_MOTO            000062c0   00000040  00000040  00000000  RWIX
  ECANB_MBOX            00006300   00000100  00000100  00000000  RWIX
  EPWM1                 00006800   00000022  00000022  00000000  RWIX
  EPWM2                 00006840   00000022  00000022  00000000  RWIX
  EPWM3                 00006880   00000022  00000022  00000000  RWIX
  EPWM4                 000068c0   00000022  00000022  00000000  RWIX
  EPWM5                 00006900   00000022  00000022  00000000  RWIX
  EPWM6                 00006940   00000022  00000022  00000000  RWIX
  ECAP1                 00006a00   00000020  00000020  00000000  RWIX
  ECAP2                 00006a20   00000020  00000020  00000000  RWIX
  ECAP3                 00006a40   00000020  00000020  00000000  RWIX
  ECAP4                 00006a60   00000020  00000020  00000000  RWIX
  ECAP5                 00006a80   00000020  00000020  00000000  RWIX
  ECAP6                 00006aa0   00000020  00000020  00000000  RWIX
  EQEP1                 00006b00   00000040  00000040  00000000  RWIX
  EQEP2                 00006b40   00000040  00000040  00000000  RWIX
  GPIOCTRL              00006f80   00000040  0000002e  00000012  RWIX
  GPIODAT               00006fc0   00000020  00000020  00000000  RWIX
  GPIOINT               00006fe0   00000020  0000000a  00000016  RWIX
  SYSTEM                00007010   00000020  00000020  00000000  RWIX
  SPIA                  00007040   00000010  00000010  00000000  RWIX
  SCIA                  00007050   00000010  00000010  00000000  RWIX
  XINTRUPT              00007070   00000010  00000010  00000000  RWIX
  ADC                   00007100   00000020  0000001e  00000002  RWIX
  SCIB                  00007750   00000010  00000010  00000000  RWIX
  SCIC                  00007770   00000010  00000010  00000000  RWIX
  I2CA                  00007900   00000040  00000022  0000001e  RWIX
  RAML4                 0000e500   00001b00  00001410  000006f0  RWIX
  ZONE6                 00100000   00100000  00010000  000f0000  RWIX
  ZONE7B                0020fc00   00000400  00000400  00000000  RWIX
  CSM_PWL               0033fff8   00000008  00000008  00000000  RWIX


SECTION ALLOCATION MAP

 output                                  attributes/
section   page    origin      length       input sections
--------  ----  ----------  ----------   ----------------
.data      0    00000000    00000000     UNINITIALIZED

codestart 
*          0    00000000    00000002     
                  00000000    00000002     DSP2833x_CodeStartBranch.obj (codestart)

.pinit     0    00008000    00000000     UNINITIALIZED

.cinit     0    00008000    000003f2     
                  00008000    0000000a     rts2800_fpu32.lib : exit.obj (.cinit)
                  0000800a    0000000a                       : _lock.obj (.cinit)
                  00008014    00000005     common_module.obj (.cinit)
                  00008019    00000015     delta_trip_proc.obj (.cinit)
                  0000802e    00000345     main.obj (.cinit)
                  00008373    00000005     MonitorProc.obj (.cinit)
                  00008378    00000035     scibv10.obj (.cinit)
                  000083ad    0000003c     switching_irq.obj (.cinit)
                  000083e9    00000004     rts2800_fpu32.lib : memory.obj (.cinit)
                  000083ed    00000004                       : errno.obj (.cinit)
                  000083f1    00000001     --HOLE-- [fill = 0]

.switch    0    000083f2    00000078     
                  000083f2    00000078     code_group_all.obj (.switch)

ramfuncs   0    0000846a    00000027     
                  0000846a    00000023     DSP2833x_SysCtrl.obj (ramfuncs)
                  0000848d    00000004     DSP2833x_usDelay.obj (ramfuncs)

IQmath     0    00008500    00000000     UNINITIALIZED

.text      0    00008500    000055a2     
                  00008500    00000020     rts2800_fpu32.lib : sqrt.obj (.text)
                  00008520    00000aab     switching_irq.obj (.text)
                  00008fcb    00000993     code_group_all.obj (.text)
                  0000995e    00000990     rts2800_fpu32.lib : _printfi.obj (.text)
                  0000a2ee    00000662     scibv10.obj (.text)
                  0000a950    000005ca     delta_trip_proc.obj (.text)
                  0000af1a    000004de     analog.obj (.text)
                  0000b3f8    00000400     main.obj (.text)
                  0000b7f8    000003c8     code_proc.obj (.text)
                  0000bbc0    000003a1     regen_dsp_110513_gpio.c (.text)
                  0000bf61    0000032a     udd_eeprom.obj (.text)
                  0000c28b    00000316     DSP2833x_DefaultIsr.obj (.text)
                  0000c5a1    000001f4     rts2800_fpu32.lib : memory.obj (.text)
                  0000c795    0000017d     common_module.obj (.text)
                  0000c912    0000014f     DSP2833x_SysCtrl.obj (.text)
                  0000ca61    00000138     rts2800_fpu32.lib : strtod.obj (.text)
                  0000cb99    00000122     ParameterSet.obj (.text)
                  0000ccbb    0000011d     delta_digital_inout.obj (.text)
                  0000cdd8    00000118     DS1307.obj (.text)
                  0000cef0    00000107     rts2800_fpu32.lib : ll_div.obj (.text)
                  0000cff7    00000107     RefFunc.obj (.text)
                  0000d0fe    000000e1     back2back_control.obj (.text)
                  0000d1df    000000c9     dac_8412.obj (.text)
                  0000d2a8    0000009c     rts2800_fpu32.lib : fd_add.obj (.text)
                  0000d344    00000093     DSP2833x_CpuTimers.obj (.text)
                  0000d3d7    0000008b     rts2800_fpu32.lib : fd_div.obj (.text)
                  0000d462    00000088                       : fs_div.obj (.text)
                  0000d4ea    00000085     udd_timer_irq.obj (.text)
                  0000d56f    00000083     rts2800_fpu32.lib : fd_mpy.obj (.text)
                  0000d5f2    00000061                       : cos.obj (.text)
                  0000d653    0000005f                       : sin.obj (.text)
                  0000d6b2    00000058                       : snprintf.obj (.text)
                  0000d70a    00000055     MonitorProc.obj (.text)
                  0000d75f    00000046     rts2800_fpu32.lib : boot.obj (.text)
                  0000d7a5    00000031                       : atoi.obj (.text)
                  0000d7d6    0000002e                       : ltoa.obj (.text)
                  0000d804    0000002a                       : fd_cmp.obj (.text)
                  0000d82e    0000002a                       : l_div.obj (.text)
                  0000d858    0000002a     DSP2833x_PieCtrl.obj (.text)
                  0000d882    00000022     rts2800_fpu32.lib : i_div.obj (.text)
                  0000d8a4    00000022     DSP2833x_PieVect.obj (.text)
                  0000d8c6    00000021     rts2800_fpu32.lib : memcpy_ff.obj (.text)
                  0000d8e7    00000021                       : fd_toi.obj (.text)
                  0000d908    00000020                       : strncpy.obj (.text)
                  0000d928    0000001f                       : fd_tol.obj (.text)
                  0000d947    0000001e                       : ll_cmp.obj (.text)
                  0000d965    0000001c                       : fs_tofd.obj (.text)
                  0000d981    0000001c                       : l_tofd.obj (.text)
                  0000d99d    0000001a                       : modf.obj (.text)
                  0000d9b7    0000001a     serial_com.obj (.text)
                  0000d9d1    00000018     rts2800_fpu32.lib : exit.obj (.text)
                  0000d9e9    00000017     DSP2833x_MemCopy.obj (.text)
                  0000da00    00000015     rts2800_fpu32.lib : args_main.obj (.text)
                  0000da15    00000014                       : ll_mpy.obj (.text)
                  0000da29    00000012                       : memccpy.obj (.text)
                  0000da3b    0000000e                       : fd_sub.obj (.text)
                  0000da49    0000000b     vf_contol.obj (.text)
                  0000da54    0000000a     rts2800_fpu32.lib : strlen.obj (.text)
                  0000da5e    00000009                       : fd_neg.obj (.text)
                  0000da67    00000009                       : _lock.obj (.text)
                  0000da70    00000009                       : strcpy.obj (.text)
                  0000da79    00000008     DSP2833x_CodeStartBranch.obj (.text)
                  0000da81    00000008     Set_Par.obj (.text)
                  0000da89    00000007     rts2800_fpu32.lib : memset.obj (.text)
                  0000da90    00000006     auto_tuning.obj (.text)
                  0000da96    00000005     SVM.obj (.text)
                  0000da9b    00000003     hyd_unit.obj (.text)
                  0000da9e    00000002     SL_Vect.obj (.text)
                  0000daa0    00000001     set_dac_point.obj (.text)
                  0000daa1    00000001     test_run.obj (.text)

csm_rsvd   0    0033ff80    00000000     DSECT

csmpasswds 
*          0    0033fff8    00000000     DSECT

.adc_cal   0    00380080    00000007     NOLOAD SECTION
                  00380080    00000007     DSP2833x_ADC_cal.obj (.adc_cal)

IQmathTables 
*          0    003fe000    00000000     NOLOAD SECTION

IQmathTables2 
*          0    003feb50    00000000     NOLOAD SECTION

FPUmathTables 
*          0    003febdc    00000000     NOLOAD SECTION

.reset     0    003fffc0    00000002     DSECT
                  003fffc0    00000002     rts2800_fpu32.lib : boot.obj (.reset)

.bss       1    00000000    00000000     UNINITIALIZED

.esysmem   1    00000400    00000000     UNINITIALIZED

.stack     1    00000400    00000300     UNINITIALIZED

DevEmuRegsFile 
*          1    00000880    000000d0     UNINITIALIZED
                  00000880    000000d0     DSP2833x_GlobalVariableDefs.obj (DevEmuRegsFile)

FlashRegsFile 
*          1    00000a80    00000008     UNINITIALIZED
                  00000a80    00000008     DSP2833x_GlobalVariableDefs.obj (FlashRegsFile)

CsmRegsFile 
*          1    00000ae0    00000010     UNINITIALIZED
                  00000ae0    00000010     DSP2833x_GlobalVariableDefs.obj (CsmRegsFile)

AdcMirrorFile 
*          1    00000b00    00000010     UNINITIALIZED
                  00000b00    00000010     DSP2833x_GlobalVariableDefs.obj (AdcMirrorFile)

XintfRegsFile 
*          1    00000b20    0000001e     UNINITIALIZED
                  00000b20    0000001e     DSP2833x_GlobalVariableDefs.obj (XintfRegsFile)

CpuTimer0RegsFile 
*          1    00000c00    00000008     UNINITIALIZED
                  00000c00    00000008     DSP2833x_GlobalVariableDefs.obj (CpuTimer0RegsFile)

CpuTimer1RegsFile 
*          1    00000c08    00000008     UNINITIALIZED
                  00000c08    00000008     DSP2833x_GlobalVariableDefs.obj (CpuTimer1RegsFile)

CpuTimer2RegsFile 
*          1    00000c10    00000008     UNINITIALIZED
                  00000c10    00000008     DSP2833x_GlobalVariableDefs.obj (CpuTimer2RegsFile)

PieCtrlRegsFile 
*          1    00000ce0    0000001a     UNINITIALIZED
                  00000ce0    0000001a     DSP2833x_GlobalVariableDefs.obj (PieCtrlRegsFile)

PieVectTableFile 
*          1    00000d00    00000100     UNINITIALIZED
                  00000d00    00000100     DSP2833x_GlobalVariableDefs.obj (PieVectTableFile)

DmaRegsFile 
*          1    00001000    000000e0     UNINITIALIZED
                  00001000    000000e0     DSP2833x_GlobalVariableDefs.obj (DmaRegsFile)

ZONE0DATA 
*          1    00004000    00000100     UNINITIALIZED
                  00004000    00000100     main.obj (ZONE0DATA)

McbspaRegsFile 
*          1    00005000    00000025     UNINITIALIZED
                  00005000    00000025     DSP2833x_GlobalVariableDefs.obj (McbspaRegsFile)

McbspbRegsFile 
*          1    00005040    00000025     UNINITIALIZED
                  00005040    00000025     DSP2833x_GlobalVariableDefs.obj (McbspbRegsFile)

ECanaRegsFile 
*          1    00006000    00000034     UNINITIALIZED
                  00006000    00000034     DSP2833x_GlobalVariableDefs.obj (ECanaRegsFile)

ECanaLAMRegsFile 
*          1    00006040    00000040     UNINITIALIZED
                  00006040    00000040     DSP2833x_GlobalVariableDefs.obj (ECanaLAMRegsFile)

ECanaMOTSRegsFile 
*          1    00006080    00000040     UNINITIALIZED
                  00006080    00000040     DSP2833x_GlobalVariableDefs.obj (ECanaMOTSRegsFile)

ECanaMOTORegsFile 
*          1    000060c0    00000040     UNINITIALIZED
                  000060c0    00000040     DSP2833x_GlobalVariableDefs.obj (ECanaMOTORegsFile)

ECanaMboxesFile 
*          1    00006100    00000100     UNINITIALIZED
                  00006100    00000100     DSP2833x_GlobalVariableDefs.obj (ECanaMboxesFile)

ECanbRegsFile 
*          1    00006200    00000034     UNINITIALIZED
                  00006200    00000034     DSP2833x_GlobalVariableDefs.obj (ECanbRegsFile)

ECanbLAMRegsFile 
*          1    00006240    00000040     UNINITIALIZED
                  00006240    00000040     DSP2833x_GlobalVariableDefs.obj (ECanbLAMRegsFile)

ECanbMOTSRegsFile 
*          1    00006280    00000040     UNINITIALIZED
                  00006280    00000040     DSP2833x_GlobalVariableDefs.obj (ECanbMOTSRegsFile)

ECanbMOTORegsFile 
*          1    000062c0    00000040     UNINITIALIZED
                  000062c0    00000040     DSP2833x_GlobalVariableDefs.obj (ECanbMOTORegsFile)

ECanbMboxesFile 
*          1    00006300    00000100     UNINITIALIZED
                  00006300    00000100     DSP2833x_GlobalVariableDefs.obj (ECanbMboxesFile)

EPwm1RegsFile 
*          1    00006800    00000022     UNINITIALIZED
                  00006800    00000022     DSP2833x_GlobalVariableDefs.obj (EPwm1RegsFile)

EPwm2RegsFile 
*          1    00006840    00000022     UNINITIALIZED
                  00006840    00000022     DSP2833x_GlobalVariableDefs.obj (EPwm2RegsFile)

EPwm3RegsFile 
*          1    00006880    00000022     UNINITIALIZED
                  00006880    00000022     DSP2833x_GlobalVariableDefs.obj (EPwm3RegsFile)

EPwm4RegsFile 
*          1    000068c0    00000022     UNINITIALIZED
                  000068c0    00000022     DSP2833x_GlobalVariableDefs.obj (EPwm4RegsFile)

EPwm5RegsFile 
*          1    00006900    00000022     UNINITIALIZED
                  00006900    00000022     DSP2833x_GlobalVariableDefs.obj (EPwm5RegsFile)

EPwm6RegsFile 
*          1    00006940    00000022     UNINITIALIZED
                  00006940    00000022     DSP2833x_GlobalVariableDefs.obj (EPwm6RegsFile)

ECap1RegsFile 
*          1    00006a00    00000020     UNINITIALIZED
                  00006a00    00000020     DSP2833x_GlobalVariableDefs.obj (ECap1RegsFile)

ECap2RegsFile 
*          1    00006a20    00000020     UNINITIALIZED
                  00006a20    00000020     DSP2833x_GlobalVariableDefs.obj (ECap2RegsFile)

ECap3RegsFile 
*          1    00006a40    00000020     UNINITIALIZED
                  00006a40    00000020     DSP2833x_GlobalVariableDefs.obj (ECap3RegsFile)

ECap4RegsFile 
*          1    00006a60    00000020     UNINITIALIZED
                  00006a60    00000020     DSP2833x_GlobalVariableDefs.obj (ECap4RegsFile)

ECap5RegsFile 
*          1    00006a80    00000020     UNINITIALIZED
                  00006a80    00000020     DSP2833x_GlobalVariableDefs.obj (ECap5RegsFile)

ECap6RegsFile 
*          1    00006aa0    00000020     UNINITIALIZED
                  00006aa0    00000020     DSP2833x_GlobalVariableDefs.obj (ECap6RegsFile)

EQep1RegsFile 
*          1    00006b00    00000040     UNINITIALIZED
                  00006b00    00000040     DSP2833x_GlobalVariableDefs.obj (EQep1RegsFile)

EQep2RegsFile 
*          1    00006b40    00000040     UNINITIALIZED
                  00006b40    00000040     DSP2833x_GlobalVariableDefs.obj (EQep2RegsFile)

GpioCtrlRegsFile 
*          1    00006f80    0000002e     UNINITIALIZED
                  00006f80    0000002e     DSP2833x_GlobalVariableDefs.obj (GpioCtrlRegsFile)

GpioDataRegsFile 
*          1    00006fc0    00000020     UNINITIALIZED
                  00006fc0    00000020     DSP2833x_GlobalVariableDefs.obj (GpioDataRegsFile)

GpioIntRegsFile 
*          1    00006fe0    0000000a     UNINITIALIZED
                  00006fe0    0000000a     DSP2833x_GlobalVariableDefs.obj (GpioIntRegsFile)

SysCtrlRegsFile 
*          1    00007010    00000020     UNINITIALIZED
                  00007010    00000020     DSP2833x_GlobalVariableDefs.obj (SysCtrlRegsFile)

SpiaRegsFile 
*          1    00007040    00000010     UNINITIALIZED
                  00007040    00000010     DSP2833x_GlobalVariableDefs.obj (SpiaRegsFile)

SciaRegsFile 
*          1    00007050    00000010     UNINITIALIZED
                  00007050    00000010     DSP2833x_GlobalVariableDefs.obj (SciaRegsFile)

XIntruptRegsFile 
*          1    00007070    00000010     UNINITIALIZED
                  00007070    00000010     DSP2833x_GlobalVariableDefs.obj (XIntruptRegsFile)

AdcRegsFile 
*          1    00007100    0000001e     UNINITIALIZED
                  00007100    0000001e     DSP2833x_GlobalVariableDefs.obj (AdcRegsFile)

ScibRegsFile 
*          1    00007750    00000010     UNINITIALIZED
                  00007750    00000010     DSP2833x_GlobalVariableDefs.obj (ScibRegsFile)

ScicRegsFile 
*          1    00007770    00000010     UNINITIALIZED
                  00007770    00000010     DSP2833x_GlobalVariableDefs.obj (ScicRegsFile)

I2caRegsFile 
*          1    00007900    00000022     UNINITIALIZED
                  00007900    00000022     DSP2833x_GlobalVariableDefs.obj (I2caRegsFile)

DMARAML4   1    0000e500    00000000     UNINITIALIZED

DMARAML5   1    0000e500    00000000     UNINITIALIZED

DMARAML6   1    0000e500    00000000     UNINITIALIZED

DMARAML7   1    0000e500    00000000     UNINITIALIZED

.econst    1    0000e500    00000d91     
                  0000e500    000005a5     code_group_all.obj (.econst)
                  0000eaa5    00000001     --HOLE-- [fill = 0]
                  0000eaa6    000001c0     scibv10.obj (.econst)
                  0000ec66    0000018f     delta_trip_proc.obj (.econst)
                  0000edf5    00000001     --HOLE-- [fill = 0]
                  0000edf6    00000102     code_proc.obj (.econst)
                  0000eef8    00000100     DSP2833x_PieVect.obj (.econst)
                  0000eff8    000000b5     udd_eeprom.obj (.econst)
                  0000f0ad    00000001     --HOLE-- [fill = 0]
                  0000f0ae    00000065     main.obj (.econst)
                  0000f113    00000001     --HOLE-- [fill = 0]
                  0000f114    0000003c     rts2800_fpu32.lib : _printfi.obj (.econst)
                  0000f150    00000014                       : strtod.obj (.econst:_digits)
                  0000f164    00000010     delta_digital_inout.obj (.econst)
                  0000f174    0000000f     MonitorProc.obj (.econst)
                  0000f183    00000001     --HOLE-- [fill = 0]
                  0000f184    0000000c     rts2800_fpu32.lib : strtod.obj (.econst:_powerof10)
                  0000f190    00000101                       : ctype.obj (.econst:__ctypes_)

.ebss      1    0000f2c0    0000067f     UNINITIALIZED
                  0000f2c0    00000592     main.obj (.ebss)
                  0000f852    00000018     DSP2833x_CpuTimers.obj (.ebss)
                  0000f86a    00000012     switching_irq.obj (.ebss)
                  0000f87c    00000004     rts2800_fpu32.lib : _lock.obj (.ebss)
                  0000f880    000000a4     scibv10.obj (.ebss)
                  0000f924    00000008     rts2800_fpu32.lib : memory.obj (.ebss)
                  0000f92c    00000006     delta_trip_proc.obj (.ebss)
                  0000f932    00000004     rts2800_fpu32.lib : exit.obj (.ebss)
                  0000f936    00000002     MonitorProc.obj (.ebss)
                  0000f938    00000002     RefFunc.obj (.ebss)
                  0000f93a    00000002     common_module.obj (.ebss)
                  0000f93c    00000001     rts2800_fpu32.lib : errno.obj (.ebss)
                  0000f93d    00000001     DSP2833x_GlobalVariableDefs.obj (.ebss)
                  0000f93e    00000001     udd_timer_irq.obj (.ebss)

ZONE6DATA 
*          1    00100000    00010000     UNINITIALIZED
                  00100000    00010000     main.obj (ZONE6DATA)

ZONE7DATA 
*          1    0020fc00    00000100     UNINITIALIZED
                  0020fc00    00000100     main.obj (ZONE7DATA)

.sysmem    1    0020fd00    00000300     UNINITIALIZED

CsmPwlFile 
*          1    0033fff8    00000008     UNINITIALIZED
                  0033fff8    00000008     DSP2833x_GlobalVariableDefs.obj (CsmPwlFile)


GLOBAL SYMBOLS: SORTED ALPHABETICALLY BY Name 

address    name
--------   ----
00000000   .bss
00000000   .data
00008500   .text
0000d9d1   C$$EXIT
0000d2a8   FD$$ADD
0000d804   FD$$CMP
0000d3d7   FD$$DIV
0000d56f   FD$$MPY
0000da5e   FD$$NEG
0000da3b   FD$$SUB
0000d8e7   FD$$TOI
0000d928   FD$$TOL
0000d462   FS$$DIV
0000d965   FS$$TOFD
0000d882   I$$DIV
0000d893   I$$MOD
0000d82e   L$$DIV
0000d83d   L$$MOD
0000d981   L$$TOFD
0000d947   LL$$CMP
0000cef0   LL$$DIV
0000cf2c   LL$$MOD
0000da15   LL$$MPY
0000d84b   UL$$DIV
0000d852   UL$$MOD
0000d959   ULL$$CMP
0000cf66   ULL$$DIV
0000cf95   ULL$$MOD
0000b2aa   _AD2LPF
0000c371   _ADCINT_ISR
00380080   _ADC_cal
00000b00   _AdcMirror
00007100   _AdcRegs
0000af7e   _Adc_Isr
0000f44a   _AnaCmdReference
0000da83   _COMMON_VECT_CNTL_ParameterVerification
0000f2fc   _CON_PWM_Flag
0000f3ae   _C_ce
0000f3b0   _C_ce_nF
0000aadc   _CheckIGBTFault
0000ab22   _CheckIGBTFault2
0000a995   _CheckOverCurrent
0000ab68   _CheckOverHeat
0000aaa9   _CheckOverSpeed
0000aa49   _CheckOverVolt
0000b961   _CheckSum
0000b963   _CheckSum_bk
0000aa78   _CheckUndeVolt
0000aea9   _ClearTripDataToEeprom
0000d390   _ConfigCpuTimer
0000f872   _ConvStartCnt
000088c9   _Converter_Ctrl
0000f376   _CosTheta
0000f4d8   _Cos_theta
0000f862   _CpuTimer0
00000c00   _CpuTimer0Regs
0000f852   _CpuTimer1
00000c08   _CpuTimer1Regs
0000f85a   _CpuTimer2
00000c10   _CpuTimer2Regs
0033fff8   _CsmPwl
00000ae0   _CsmRegs
0000ca30   _CsmUnlock
0000f5e6   _Current_Input_R
0000f5e8   _Current_Input_S
0000f5fa   _Current_Input_T
0000f5ec   _Current_Output_R
0000f584   _Current_Output_S
0000f582   _Current_Output_T
0000c29f   _DATALOG_ISR
0000f4be   _DC_LINK_N
0000f4c4   _DC_LINK_P
0000f873   _DC_Link_Cnt
0000f2ff   _DC_fault_cnt
0000f680   _DF_Uan
0000f668   _DF_Ubn
0000f672   _DF_Ucn
0000c493   _DINTCH1_ISR
0000c49d   _DINTCH2_ISR
0000c4a7   _DINTCH3_ISR
0000c4b1   _DINTCH4_ISR
0000c4bb   _DINTCH5_ISR
0000c4c5   _DINTCH6_ISR
0000ce01   _DS1307ReadData
0000cdd8   _DS1307WriteData
0000848d   _DSP28x_usDelay
0000f412   _Data_Backup
0000f418   _Data_Check
0000f3ee   _Data_Init
0000f3f0   _Data_Load
0000f871   _Delay_cnt
0000f86e   _Delay_cnt2
00000880   _DevEmuRegs
0000c925   _DisableDog
00001000   _DmaRegs
0000f600   _DutyCount
0000f65c   _DutyRatio
0000c51f   _ECAN0INTA_ISR
0000c533   _ECAN0INTB_ISR
0000c529   _ECAN1INTA_ISR
0000c53d   _ECAN1INTB_ISR
0000c407   _ECAP1_INT_ISR
0000c411   _ECAP2_INT_ISR
0000c41b   _ECAP3_INT_ISR
0000c425   _ECAP4_INT_ISR
0000c42f   _ECAP5_INT_ISR
0000c439   _ECAP6_INT_ISR
00006040   _ECanaLAMRegs
000060c0   _ECanaMOTORegs
00006080   _ECanaMOTSRegs
00006100   _ECanaMboxes
00006000   _ECanaRegs
00006240   _ECanbLAMRegs
000062c0   _ECanbMOTORegs
00006280   _ECanbMOTSRegs
00006300   _ECanbMboxes
00006200   _ECanbRegs
00006a00   _ECap1Regs
00006a20   _ECap2Regs
00006a40   _ECap3Regs
00006a60   _ECap4Regs
00006a80   _ECap5Regs
00006aa0   _ECap6Regs
0000c2b3   _EMUINT_ISR
0000c3cb   _EPWM1_INT_ISR
0000c38f   _EPWM1_TZINT_ISR
0000c3d5   _EPWM2_INT_ISR
0000c399   _EPWM2_TZINT_ISR
0000c3df   _EPWM3_INT_ISR
0000c3a3   _EPWM3_TZINT_ISR
0000c3e9   _EPWM4_INT_ISR
0000c3ad   _EPWM4_TZINT_ISR
0000c3f3   _EPWM5_INT_ISR
0000c3b7   _EPWM5_TZINT_ISR
0000c3fd   _EPWM6_INT_ISR
0000c3c1   _EPWM6_TZINT_ISR
00006800   _EPwm1Regs
00006840   _EPwm2Regs
00006880   _EPwm3Regs
000068c0   _EPwm4Regs
00006900   _EPwm5Regs
00006940   _EPwm6Regs
0000d13e   _EPwm_All_Disable
0000d0fe   _EPwm_ISC_Enable
0000d11e   _EPwm_OSC_Enable
0000c443   _EQEP1_INT_ISR
0000c44d   _EQEP2_INT_ISR
00006b00   _EQep1Regs
00006b40   _EQep2Regs
0000f2e7   _EepromSaveFlag
0000d877   _EnableInterrupts
0000f87a   _Ex_out
0000f876   _FREQ_CNT
0000f2fb   _Fault_Code
0000f2f0   _Flag_TripDataBackup
00000a80   _FlashRegs
0000f36a   _Freq_out
0000f3f6   _Freq_rat
0000f360   _Freq_ref
0000f340   _Freq_set
0000f35a   _Freq_slip
0000f314   _Freq_slip_rat
0000f312   _Fs_B
0000f3fc   _GainUpdateTimer
0000d755   _GetInputMark
0000ce2d   _GetTimeAndDateStr
0000acf8   _GetTripInfo
00006f80   _GpioCtrlRegs
00006fc0   _GpioDataRegs
00006fe0   _GpioIntRegs
0000da81   _HardwareParameterVerification
0000bf61   _I2CA_Init
0000bfd0   _I2CA_ReadData
0000bf73   _I2CA_WriteData
0000c4cf   _I2CINT1A_ISR
0000c4d9   _I2CINT2A_ISR
00007900   _I2caRegs
0000c2c7   _ILLEGAL_ISR
0000f86c   _INMC_Flag
0000c28b   _INT13_ISR
0000c295   _INT14_ISR
0000f2fd   _INV_PWM_Flag
0000f2f4   _INV_STEP_CNT
0000f30e   _I_QS_rat
0000f3cc   _I_sense_value
0000f328   _Im_Power
0000f86a   _InMCOn
0000f2f2   _InOCFlag
0000af1a   _InitAdc
0000d344   _InitCpuTimers
0000b621   _InitEPwm_ACIM_Inverter
0000846a   _InitFlash
0000bbc0   _InitGpio
0000c980   _InitPeripheralClocks
0000d858   _InitPieCtrl
0000d8a4   _InitPieVectTable
0000c92d   _InitPll
0000c912   _InitSysCtrl
0000b7da   _InitWatchDog
0000becd   _InitXintf
0000f874   _Init_Charge_Flag
0000f2ea   _Init_RiseUp_Flag
00008acd   _Inverter_Ctrl
0000f86f   _IrtCnt
0000f400   _Is_Leq_Req
0000f476   _Is_Max_Coeff
0000f350   _Is_R
0000f34e   _Is_S
0000f354   _Is_T
0000f662   _Is_abc
0000f60c   _Is_dq
0000f390   _Is_mag
0000f38e   _Is_mag_rms
0000f394   _Is_max
0000f32a   _Is_rat
0000f3c2   _Jm
0000f336   _Ki_Is
0000f318   _Ki_wr
0000f342   _Kp_Is
0000f33a   _Kp_Is_Coeff
0000f31e   _Kp_wr
0000c7d0   _LPF1
0000b344   _LPF100
0000b317   _LPF1000
0000b39e   _LPF500
0000b371   _LPF5000
0000f654   _LPF_Active
0000f608   _LPF_Current_Input_R
0000f61c   _LPF_Current_Input_S
0000f610   _LPF_Current_Input_T
0000f630   _LPF_Current_Output_R
0000f618   _LPF_Current_Output_S
0000f604   _LPF_Current_Output_T
0000f624   _LPF_DCLINK_voltage
0000f5b6   _LPF_Ia_feed
0000f5b8   _LPF_Ia_in
0000f5b2   _LPF_Ia_out
0000f5cc   _LPF_Ib_feed
0000f5ee   _LPF_Ib_in
0000f5c8   _LPF_Ib_out
0000f3e8   _LPF_Is
0000f3f2   _LPF_Is_Square
0000f3fa   _LPF_Re_Power
0000f640   _LPF_Reactive
0000f648   _LPF_SOC
0000f362   _LPF_Te
0000f64c   _LPF_Ude_pll
0000f658   _LPF_Uqe_pll
0000f644   _LPF_Urmsp
0000f5c6   _LPF_Vdc_feed
0000f5c0   _LPF_Vdc_in
0000f5c2   _LPF_Vdc_out
0000f620   _LPF_Voltage_Input_RS
0000f634   _LPF_Voltage_Input_ST
0000f628   _LPF_Voltage_Output_R
0000f638   _LPF_Voltage_Output_S
0000f62c   _LPF_Voltage_Output_T
0000f3ec   _LPF_Vs_Square
0000f63c   _LPF_del_freq
0000f614   _LPF_fIn_Ide_axis
0000f650   _LPF_fIn_Iqe_axis
0000c583   _LUF_ISR
0000c579   _LVF_ISR
0000f3c4   _Lm
0000f38c   _Lm_div_Lr
0000f3ce   _Lr
0000f396   _Lr_div_Lm
0000f3c8   _Ls
0000c47f   _MRINTA_ISR
0000c46b   _MRINTB_ISR
0000c489   _MXINTA_ISR
0000c475   _MXINTB_ISR
00008520   _MainPWM
0000f358   _Max_Trq_Coeff
00005000   _McbspaRegs
00005040   _McbspbRegs
0000d9e9   _MemCopy
0000f6d8   _MonitorMsg
0000c2bd   _NMI_ISR
0000c7ef   _Nop
0000f86d   _OUTMC_Flag
0000f54a   _Out_alpha_cur
0000f548   _Out_beta_cur
0000f544   _Out_fIn_Ide_axis
0000f542   _Out_fIn_Iqe_axis
0000f438   _OverCurLimit
0000c58d   _PIE_RESERVED
0000c7f2   _PI_Damp_Controller
000085e7   _PLL
0000f52e   _P_out
0000f93d   _PartIdRegs
00000ce0   _PieCtrlRegs
00000d00   _PieVectTable
0000eef8   _PieVectTableInit
0000c859   _PowerOnReset
0000f3a6   _Power_core
0000f39c   _Power_core_rat
0000f39a   _Power_gap
0000f86b   _ProgramCnt
0000f4c0   _RMS_Iin
0000f54e   _RMS_Iout
0000f530   _RMS_Vout
0000c2a9   _RTOSINT_ISR
0000f870   _RUN_FLAG
0000f41a   _R_phase_I_sense_span
0000f414   _R_phase_I_sense_zero
0000f324   _Re_Power
0000ae12   _ReadTripString
0000cff7   _RefFunc
0000f3ba   _Rr
0000f3c0   _Rs
0000c4f7   _SCIRXINTA_ISR
0000c50b   _SCIRXINTB_ISR
0000c4e3   _SCIRXINTC_ISR
0000c501   _SCITXINTA_ISR
0000c515   _SCITXINTB_ISR
0000c4ed   _SCITXINTC_ISR
0000c349   _SEQ1INT_ISR
0000c353   _SEQ2INT_ISR
0000da87   _SL_SPEED_CNTL_Parameter
0000da9e   _SL_SpeedCntl_SFRF
0000da85   _SL_TORQUE_CNTL_Parameter
0000da9f   _SL_VectCntl_SFRF
0000f5fe   _SOCCoeff1
0000f5f8   _SOCCoeff2
0000c457   _SPIRXINTA_ISR
0000c461   _SPITXINTA_ISR
0000f5d0   _SUM_DC_LINK
0000f316   _S_lin
0000f40e   _S_phase_I_sense_span
0000f410   _S_phase_I_sense_zero
0000f320   _S_rat
0000b99a   _SaveDataProc
0000ae36   _SaveTripDataToEeprom
00007050   _SciaRegs
00007750   _ScibRegs
00007770   _ScicRegs
0000c91b   _ServiceDog
0000c858   _SetSensorOffset
0000f37c   _SinTheta
0000f4e2   _Sin_theta
0000f3a0   _Slip
0000f3b2   _SlipCoeff
0000da96   _SpaceVectorModulation
00007040   _SpiaRegs
00007010   _SysCtrlRegs
0000f4e6   _SysWe
0000c37b   _TINT0_ISR
0000f35c   _Te
0000f34c   _Te_max
0000f35e   _Te_ref
0000f888   _TimeInput
0000f388   _Tr
0000f800   _TripInfo
0000f780   _TripInfoNow
0000abac   _TripProc
0000f32e   _Ts
0000c32b   _USER10_ISR
0000c335   _USER11_ISR
0000c33f   _USER12_ISR
0000c2d1   _USER1_ISR
0000c2db   _USER2_ISR
0000c2e5   _USER3_ISR
0000c2ef   _USER4_ISR
0000c2f9   _USER5_ISR
0000c303   _USER6_ISR
0000c30d   _USER7_ISR
0000c317   _USER8_ISR
0000c321   _USER9_ISR
0000f580   _Uan
0000f588   _Uan_alpha
0000f58e   _Uan_beta
0000f558   _Uan_out
0000f5bc   _Uanpu
0000f57e   _Ubn
0000f568   _Ubn_alpha
0000f566   _Ubn_beta
0000f556   _Ubn_out
0000f594   _Ubnpu
0000f590   _Ucn
0000f576   _Ucn_alpha
0000f56a   _Ucn_beta
0000f55c   _Ucn_out
0000f58a   _Ucnpu
0000f4ea   _Ude_Limit
0000f4e0   _Ude_err
0000f4da   _Ude_integ
0000f4ec   _Ude_integ_pre
0000f5e0   _Ude_pll
0000f5dc   _Up_alpha
0000f5f6   _Up_beta
0000f5de   _Upa
0000f5e4   _Upb
0000f5da   _Upc
0000f5d2   _Uqe_pll
0000f4d6   _Ureal_rms
0000f5ea   _VDCCoeff1
0000f5f0   _VDCCoeff2
0000cbd2   _VariInit
0000cb99   _VariInit1
0000f37e   _Vdc
0000f59a   _Vdc_calc_offset
0000f59c   _Vdc_factor
0000f3f8   _Vdc_fnd_data
0000da9a   _VoltageEstimation
0000f5d8   _Voltage_Input_RS
0000f5ce   _Voltage_Input_ST
0000f586   _Voltage_Output_R
0000f54c   _Voltage_Output_RS
0000f57c   _Voltage_Output_S
0000f546   _Voltage_Output_ST
0000f57a   _Voltage_Output_T
0000f3ea   _Vs_Coeff_Leq_Req
0000f3a4   _Vs_IR_comp
0000f34a   _Vs_R
0000f5c4   _Vs_R_calc_offset
0000f5ac   _Vs_R_factor
0000f348   _Vs_S
0000f5a6   _Vs_S_calc_offset
0000f5b0   _Vs_S_factor
0000f352   _Vs_T
0000f5aa   _Vs_T_calc_offset
0000f5a4   _Vs_T_factor
0000f36c   _Vs_max
0000f326   _Vs_rat
0000f356   _Vs_ref
0000c385   _WAKEINT_ISR
0000ce9e   _WriteTimeToDS1307
0000addd   _WriteTripString
0000c35d   _XINT1_ISR
0000c367   _XINT2_ISR
0000c547   _XINT3_ISR
0000c551   _XINT4_ISR
0000c55b   _XINT5_ISR
0000c565   _XINT6_ISR
0000c56f   _XINT7_ISR
00007070   _XIntruptRegs
00000b20   _XintfRegs
00004000   _ZONE0_BUF
00100000   _ZONE6_BUF
0020fc00   _ZONE7_BUF
00000300   __STACK_SIZE
00000300   __SYSMEM_SIZE
ffffffff   ___TI_pprof_out_hndl
ffffffff   ___TI_prof_var_size
ffffffff   ___TI_prof_var_start
ffffffff   ___binit__
00000000   ___bss__
ffffffff   ___c_args__
00008000   ___cinit__
00000000   ___data__
00000000   ___edata__
00000000   ___end__
0000daa2   ___etext__
0000d8c6   ___memcpy_ff
ffffffff   ___pinit__
00008500   ___text__
0000da00   __args_main
0000f932   __cleanup_ptr
0000f190   __ctypes_
0000f934   __dtors_ptr
0000f87e   __lock
0000da6f   __nop
0000a1e8   __printfi
0000da6b   __register_lock
0000da67   __register_unlock
00000400   __stack
0020fd00   __sys_memory
0000f87c   __unlock
0000f4d0   _a0
0000f4ce   _a1
0000f4d4   _a2
0000d9d1   _abort
0000f436   _accel_time1
0000f43a   _accel_time2
0000f2f7   _adc_R_offset
0000f2fa   _adc_S_offset
0000f694   _adc_result
0000f30b   _adc_u_offset
0000f2f8   _adc_v_offset
0000f4e8   _alpha_cur
0000f41c   _analog_cmd_in_span1
0000f420   _analog_cmd_in_span2
0000f41e   _analog_cmd_in_zero1
0000f426   _analog_cmd_in_zero2
0000c8a9   _analog_cmd_proc
0000b3cb   _analog_input_proc
0000b3d4   _analog_out_proc
0000f5a0   _analog_ref_a
0000f59e   _analog_ref_b
0000d7a5   _atoi
0000f4ca   _b0
0000f4c8   _b1
0000f4d2   _b2
0000b910   _backup_data_load
0000f4c2   _beta_cur
0000f470   _btn_start_ref
0000d75f   _c_int00
0000c77a   _calloc
0000b88f   _check_backup_data
0000c1c3   _check_code_data
0000b3d5   _check_sensor_trip
0000c778   _chkheap
0000f309   _cmdtest
0000f3de   _code_LPF_cutoff_hz_I
0000f3dc   _code_LPF_cutoff_hz_V
0000f450   _code_Vdc_calc_high
0000f462   _code_Vdc_calc_low
0000f478   _code_Vdc_offseter
0000f47e   _code_Vdc_scaler
0000f45c   _code_Vs_R_calc_high
0000f466   _code_Vs_R_calc_low
0000f458   _code_Vs_R_offseter
0000f44e   _code_Vs_R_scaler
0000f3e4   _code_Vs_S_calc_high
0000f3d6   _code_Vs_S_calc_low
0000f464   _code_Vs_S_offseter
0000f45a   _code_Vs_S_scaler
0000f40a   _code_Vs_T_calc_high
0000f3e2   _code_Vs_T_calc_low
0000f3d0   _code_Vs_T_offseter
0000f3d2   _code_Vs_T_scaler
0000f460   _code_adc_Vs_R_high
0000f452   _code_adc_Vs_R_low
0000f3d8   _code_adc_Vs_S_high
0000f45e   _code_adc_Vs_S_low
0000f3d4   _code_adc_Vs_T_high
0000f3da   _code_adc_Vs_T_low
0000f454   _code_adc_vdc_high
0000f456   _code_adc_vdc_low
0000f434   _code_dac_offset_ch1
0000f428   _code_dac_offset_ch2
0000f42c   _code_dac_offset_ch3
0000f47c   _code_dac_offset_ch4
0000f42e   _code_dac_scale_ch1
0000f42a   _code_dac_scale_ch2
0000f432   _code_dac_scale_ch3
0000f46e   _code_dac_scale_ch4
0000f2c1   _code_dac_select_ch1
0000f2c2   _code_dac_select_ch2
0000f2d5   _code_dac_select_ch3
0000f2d8   _code_dac_select_ch4
0000f700   _code_inform
0000f2c4   _code_protect_IGBT2_off
0000f2c0   _code_protect_IGBT_off
0000f2c9   _code_protect_Iadc_off
0000f2c3   _code_protect_ex_trip_off
0000f2c6   _code_protect_inhibit_on
0000f2cc   _code_protect_ov_off
0000f2ca   _code_protect_over_I_off
0000f2cb   _code_protect_uv_off
0000f446   _code_speed2
0000f424   _code_speed3
0000f422   _code_speed4
0000f430   _code_speed5
000085ad   _convert_var_init
0000d5f2   _cos
0000d4ea   _cpu_timer0_isr
0000d1df   _dac8412_out
0000c156   _data_over_proc
0000c112   _data_under_proc
0000f2d2   _debug1
0000f440   _decel_time1
0000f448   _decel_time2
0000f39e   _del_Vs_comp
0000c875   _delay_msecs
0000ccee   _digital_input_proc
0000cd8c   _digital_out_proc
0000cd2b   _digital_port_check
0000f44c   _digital_speed2
0000f2f3   _disp_fnd_mode
0000f4cc   _div_a0
0000ccc1   _driver_enable_proc
0000f2d3   _e_stop
0000f47a   _e_thermal_level
0000f93c   _errno
0000da93   _estim_Jm_pwm
0000da92   _estim_Ls_pwm
0000da90   _estim_ReqLeq_pwm
0000da91   _estim_Rs_pwm
0000d9d3   _exit
0000f4ba   _fIn_DC_Voltage_err
0000f56c   _fIn_DC_Voltage_integ
0000f572   _fIn_DC_Voltage_integ_pre
0000f570   _fIn_DC_Voltage_out
0000f578   _fIn_DC_Voltage_ref
0000f56e   _fIn_DC_Voltage_ref_cmd
0000f592   _fIn_Ib
0000f4f4   _fIn_Ide_Ffest
0000f4c6   _fIn_Ide_axis
0000f4fc   _fIn_Ide_axis_ref
0000f4fa   _fIn_Ide_err
0000f55e   _fIn_Ide_integ
0000f564   _fIn_Ide_integ_pre
0000f504   _fIn_Ide_out
0000f506   _fIn_Iqe_Ffest
0000f4bc   _fIn_Iqe_axis
0000f4f2   _fIn_Iqe_axis_ref
0000f4f0   _fIn_Iqe_err
0000f574   _fIn_Iqe_integ
0000f58c   _fIn_Iqe_integ_pre
0000f50a   _fIn_Iqe_out
0000f2d0   _fIn_Ir_fault_cnt
0000f300   _fIn_Is_fault_cnt
0000f2f6   _fIn_It_fault_cnt
0000f490   _fIn_PHASE_CMPR
0000f49a   _fIn_PHASE_CMPS
0000f494   _fIn_PHASE_CMPT
0000f496   _fIn_PWM_R
0000f49c   _fIn_PWM_S
0000f492   _fIn_PWM_T
00008ace   _fIn_SpaceVectorPWM
0000f4b6   _fIn_Va_ref
0000f4b0   _fIn_Vb_ref
0000f48a   _fIn_Vc_ref
0000f560   _fIn_Vde_axis
0000f4ae   _fIn_Vds_axis
0000f562   _fIn_Vqe_axis
0000f4ac   _fIn_Vqs_axis
0000f484   _fIn_a
0000f48c   _fIn_cmpr1
0000f486   _fIn_cmpr2
0000f498   _fIn_cmpr3
0000f488   _fIn_max
0000f48e   _fIn_min
0000f508   _fOut_Cos_theta
0000f2f9   _fOut_Is_fault_cnt
0000f2fe   _fOut_It_fault_cnt
0000f516   _fOut_PHASE_CMPR
0000f50e   _fOut_PHASE_CMPS
0000f50c   _fOut_PHASE_CMPT
0000f4f8   _fOut_PWM_R
0000f4f6   _fOut_PWM_S
0000f512   _fOut_PWM_T
0000f502   _fOut_Sin_theta
00008ce0   _fOut_SpaceVectorPWM
0000f500   _fOut_SysWe
0000f4dc   _fOut_Va_ref
0000f510   _fOut_Vb_ref
0000f520   _fOut_Vc_ref
0000f536   _fOut_Vde_Ffest
0000f53c   _fOut_Vde_Ki
0000f4a6   _fOut_Vde_Kp
0000f55a   _fOut_Vde_axis
0000f53e   _fOut_Vde_axis_out
0000f534   _fOut_Vde_axis_ref
0000f528   _fOut_Vde_err
0000f52a   _fOut_Vde_integ
0000f53a   _fOut_Vde_integ_pre
0000f540   _fOut_Vde_limit
0000f4a4   _fOut_Vde_ref_out
0000f552   _fOut_Vds_axis
0000f4de   _fOut_Vds_axis_out
0000f4a2   _fOut_Vqe_Ffest
0000f4a0   _fOut_Vqe_Ki
0000f4b2   _fOut_Vqe_Kp
0000f554   _fOut_Vqe_axis
0000f532   _fOut_Vqe_axis_cmd
0000f4b4   _fOut_Vqe_axis_out
0000f52c   _fOut_Vqe_axis_ref
0000f526   _fOut_Vqe_err
0000f4aa   _fOut_Vqe_integ
0000f49e   _fOut_Vqe_integ_pre
0000f4a8   _fOut_Vqe_limit
0000f4b8   _fOut_Vqe_ref_out
0000f550   _fOut_Vqs_axis
0000f514   _fOut_Vqs_axis_out
0000f51a   _fOut_a
0000f518   _fOut_cmpr1
0000f522   _fOut_cmpr2
0000f51c   _fOut_cmpr3
0000f51e   _fOut_max
0000f524   _fOut_min
0000f4fe   _fOut_theta_pll
0000f5e2   _fSysAbcLpfCoeff1
0000f5d4   _fSysAbcLpfCoeff2
0000f5d6   _fSysDqeLpfCoeff1
0000f5fc   _fSysDqeLpfCoeff2
0000f5f2   _fSysFreqCoeff1
0000f5f4   _fSysFreqCoeff2
00008eea   _fault_check
0000ccbb   _fault_reset
0000c5a1   _free
0000c75a   _free_memory
0000f374   _frequency
0000f43c   _func_flag
0000f2d9   _gAutoTuningSelect
0000f2da   _gControlMode
0000f2e3   _gDeChargeFlag
0000f2de   _gMachineState
0000f2dc   _gPWMTripCode
0000f2eb   _gRunFlag
0000f2e1   _gSciInFlag
0000f6a4   _gSciaRxBuf
0000f6c0   _gSciaTxBuf
0000f2e0   _gSciaTxEndFlag
0000f2e4   _gSciaTxInPoint
0000f2df   _gSciaTxOutPoint
0000f2db   _gStartInitFinish
0000f740   _gStr1
0000f68a   _gStr2
0000f2ef   _gTripFlag
0000f2e6   _gTripSaveFlag
0000f2dd   _gTripSavePoint
0000f43e   _gdouSciCmdData
0000c90f   _get_adc_offset
0000c911   _get_adc_vdc_high
0000c910   _get_adc_vdc_low
00008fcb   _get_code_group0
000091a9   _get_code_group1
000091b9   _get_code_group2
0000920c   _get_code_group3
00009693   _get_code_group4
000096a4   _get_code_group5
000098d9   _get_code_group6
000098ea   _get_code_group7
000098fb   _get_code_group8
0000b7f8   _get_code_information
0000c8ba   _get_command
0000c039   _get_eprom_address
0000f332   _gfRunTime
0000f2d7   _giAdcAI_I1
0000f2cd   _giAdcAI_I2
0000f2d6   _giAdcAI_V1
0000f2d1   _giAdcAI_V2
0000f2ed   _giAdcAnaCmd
0000f308   _giAdcTemp
0000f2ee   _giAdcUphase
0000f2ec   _giAdcVdc
0000f2f1   _giAdcVphase
0000f2e2   _giSciCmdAddr
0000f2e5   _giSciCmdFunction
0000f2e8   _guiEpwmPeriodCount
0000f330   _gulStartCount
0000da9d   _hyd_unit_control
0000da9b   _hyd_unit_loop_proc
0000f875   _iCnt
0000c89c   _iGetAinCmd
0000f406   _igbt_pwm_freq
0000f2cf   _init_charge_flag
0000bb46   _init_eprom_data
0000ccdc   _input_acc_dec_byp_proc
0000ccd3   _input_acel_decel_switch_proc
0000ccc7   _input_ai_local_remote_proc
0000ccc4   _input_ai_ref_active_proc
0000ccdf   _input_ext_fault_a_proc
0000ccca   _input_ext_fault_b_proc
0000ccd0   _input_mb_brake_state_proc
0000cccd   _input_motor_select_proc
0000ccd9   _input_ref_tunning_dec_proc
0000ccd6   _input_ref_tunning_inc_proc
0000f3b4   _inv_C_ce
0000f3f4   _inv_Freq_rat
0000f30c   _inv_Fs_B
0000f33c   _inv_GM_Is
0000f310   _inv_GM_Is_square_minus_1
0000f31a   _inv_I_QS_rat
0000f33e   _inv_Is_rat
0000f380   _inv_Ls
0000f392   _inv_Ls_plus_sigma_Ls
0000f382   _inv_Tr
0000f32c   _inv_Ts
0000f5ae   _inv_code_dac_scale_ch1
0000f5a2   _inv_code_dac_scale_ch2
0000f598   _inv_code_dac_scale_ch3
0000f596   _inv_code_dac_scale_ch4
0000f346   _inv_motor_rate_hz
0000f38a   _inv_sigma_Ls
0000f3ac   _inv_sigma_Tr
0000c19a   _invalid_address_proc
0000f444   _jog_speed
0000c795   _linear_eq
0000c212   _load_code2ram
0000a399   _load_scib_tx_mail_box
0000a376   _load_scib_tx_mail_box_char
0000d7d6   _ltoa
0000b3f8   _main
0000c615   _malloc
0000c738   _max_free
0000da29   _memccpy
0000da89   _memset
0000f442   _min_vf_ref
0000c5ea   _minit
0000d99d   _modf
0000d71d   _monitor_proc
0000f2c7   _motor_ctrl_mode
0000f2c8   _motor_direction_change
0000f3b8   _motor_pole
0000f3be   _motor_rate_current
0000f3b6   _motor_rate_effiency
0000f3bc   _motor_rate_hz
0000f3e6   _motor_rate_power
0000f3ca   _motor_rate_rpm
0000f3e0   _motor_rate_volt
0000f474   _over_I_time
0000f46a   _over_current_level
0000f46c   _over_speed_level
0000f468   _over_volt_set
0000f5ba   _pCoeff_I1
0000f5ca   _pCoeff_I2
0000f5be   _pCoeff_V1
0000f5b4   _pCoeff_V2
0000da94   _parameter_estimation
0000c888   _periodic_check
0000f538   _pll_out
0000f480   _pre_charge_time
0000f30a   _protect_reg
0000f2c5   _ramp_func_mode
0000d0ea   _ramp_proc
0000c0d0   _read_eprom_data
0000c670   _realloc
0000f5a8   _ref_time
0000f36e   _reference0
0000f368   _reference1
0000f366   _reference_in
0000f364   _reference_out
0000f307   _relay_flag
0000f370   _rpm
0000c597   _rsvd_ISR
0000f2e9   _run_input_select
0000b8d9   _save_backup_data
0000a41f   _scibRxFifoIsr
0000a3c3   _scibTxFifoIsr
0000a49e   _scib_cmd_proc
0000a309   _scib_fifo_init
0000f883   _scib_rx_end_addr
0000f8a6   _scib_rx_msg_box
0000f306   _scib_rx_msg_flag
0000f884   _scib_rx_start_addr
0000f880   _scib_tx_end_addr
0000a360   _scib_tx_msg
0000f8c0   _scib_tx_msg_box
0000f881   _scib_tx_start_addr
0000d9b7   _serial_com_proc
0000b86f   _set_code_default_double
0000b854   _set_code_default_int
0000daa0   _set_dac_point
0000f3aa   _sigma
0000f3a8   _sigma_Ls
0000f398   _sigma_Ls_div_1_plus_sigma
0000f386   _sigma_Tr
0000f384   _sigma_minus_1_div_sigma_Ls
0000d653   _sin
0000d6b2   _snprintf
00008500   _sqrt
0000da70   _strcpy
0000da54   _strlen
0000d908   _strncpy
0000ca61   _strtod
0000f305   _terminal_input_state
0000f878   _testMax
0000daa1   _test_run
0000f877   _testiCnt
0000f372   _theta
0000f4ee   _theta60
0000f4e4   _theta_pll
0000f3fe   _time_t
0000ab86   _trip_check
0000a963   _trip_recording
0000f2d4   _uConv_CtrlOn
0000f303   _uConv_LOW_DC_fault_cnt
0000f482   _uIn_Flag_OM
0000f302   _uInv_CtrlOn
0000f2f5   _uOut_Flag_OM
0000f408   _u_phase_I_sense_span
0000f3c6   _u_phase_I_sense_zero
0000c871   _ulGetNow_mSec
0000c85a   _ulGetTime_mSec
0000f472   _under_volt_set
0000f404   _v_phase_I_sense_span
0000f416   _v_phase_I_sense_zero
0000f40c   _vdc_sense_span
0000f402   _vdc_sense_zero
0000da4e   _vf_frequency_control
0000da49   _vf_loop_control
0000da53   _vf_simple_control
0000b7c6   _wakeint_isr
0000f378   _we
0000f3a2   _we0
0000f37a   _we_in
0000f344   _we_rat
0000f31c   _wn_wr
0000f334   _wp_Is
0000f338   _wp_Is_Coeff
0000f322   _wr_FilterPole
0000f301   _wr_ctrl_index
0000c09b   _write_code_2_eeprom
0000f2ce   _xcon_data
ffffffff   binit
00008000   cinit
00000000   code_start
00000000   edata
00000000   end
0000daa2   etext
ffffffff   pinit


GLOBAL SYMBOLS: SORTED BY Symbol Address 

address    name
--------   ----
00000000   .bss
00000000   .data
00000000   ___bss__
00000000   ___data__
00000000   ___edata__
00000000   ___end__
00000000   code_start
00000000   edata
00000000   end
00000300   __STACK_SIZE
00000300   __SYSMEM_SIZE
00000400   __stack
00000880   _DevEmuRegs
00000a80   _FlashRegs
00000ae0   _CsmRegs
00000b00   _AdcMirror
00000b20   _XintfRegs
00000c00   _CpuTimer0Regs
00000c08   _CpuTimer1Regs
00000c10   _CpuTimer2Regs
00000ce0   _PieCtrlRegs
00000d00   _PieVectTable
00001000   _DmaRegs
00004000   _ZONE0_BUF
00005000   _McbspaRegs
00005040   _McbspbRegs
00006000   _ECanaRegs
00006040   _ECanaLAMRegs
00006080   _ECanaMOTSRegs
000060c0   _ECanaMOTORegs
00006100   _ECanaMboxes
00006200   _ECanbRegs
00006240   _ECanbLAMRegs
00006280   _ECanbMOTSRegs
000062c0   _ECanbMOTORegs
00006300   _ECanbMboxes
00006800   _EPwm1Regs
00006840   _EPwm2Regs
00006880   _EPwm3Regs
000068c0   _EPwm4Regs
00006900   _EPwm5Regs
00006940   _EPwm6Regs
00006a00   _ECap1Regs
00006a20   _ECap2Regs
00006a40   _ECap3Regs
00006a60   _ECap4Regs
00006a80   _ECap5Regs
00006aa0   _ECap6Regs
00006b00   _EQep1Regs
00006b40   _EQep2Regs
00006f80   _GpioCtrlRegs
00006fc0   _GpioDataRegs
00006fe0   _GpioIntRegs
00007010   _SysCtrlRegs
00007040   _SpiaRegs
00007050   _SciaRegs
00007070   _XIntruptRegs
00007100   _AdcRegs
00007750   _ScibRegs
00007770   _ScicRegs
00007900   _I2caRegs
00008000   ___cinit__
00008000   cinit
0000846a   _InitFlash
0000848d   _DSP28x_usDelay
00008500   .text
00008500   ___text__
00008500   _sqrt
00008520   _MainPWM
000085ad   _convert_var_init
000085e7   _PLL
000088c9   _Converter_Ctrl
00008acd   _Inverter_Ctrl
00008ace   _fIn_SpaceVectorPWM
00008ce0   _fOut_SpaceVectorPWM
00008eea   _fault_check
00008fcb   _get_code_group0
000091a9   _get_code_group1
000091b9   _get_code_group2
0000920c   _get_code_group3
00009693   _get_code_group4
000096a4   _get_code_group5
000098d9   _get_code_group6
000098ea   _get_code_group7
000098fb   _get_code_group8
0000a1e8   __printfi
0000a309   _scib_fifo_init
0000a360   _scib_tx_msg
0000a376   _load_scib_tx_mail_box_char
0000a399   _load_scib_tx_mail_box
0000a3c3   _scibTxFifoIsr
0000a41f   _scibRxFifoIsr
0000a49e   _scib_cmd_proc
0000a963   _trip_recording
0000a995   _CheckOverCurrent
0000aa49   _CheckOverVolt
0000aa78   _CheckUndeVolt
0000aaa9   _CheckOverSpeed
0000aadc   _CheckIGBTFault
0000ab22   _CheckIGBTFault2
0000ab68   _CheckOverHeat
0000ab86   _trip_check
0000abac   _TripProc
0000acf8   _GetTripInfo
0000addd   _WriteTripString
0000ae12   _ReadTripString
0000ae36   _SaveTripDataToEeprom
0000aea9   _ClearTripDataToEeprom
0000af1a   _InitAdc
0000af7e   _Adc_Isr
0000b2aa   _AD2LPF
0000b317   _LPF1000
0000b344   _LPF100
0000b371   _LPF5000
0000b39e   _LPF500
0000b3cb   _analog_input_proc
0000b3d4   _analog_out_proc
0000b3d5   _check_sensor_trip
0000b3f8   _main
0000b621   _InitEPwm_ACIM_Inverter
0000b7c6   _wakeint_isr
0000b7da   _InitWatchDog
0000b7f8   _get_code_information
0000b854   _set_code_default_int
0000b86f   _set_code_default_double
0000b88f   _check_backup_data
0000b8d9   _save_backup_data
0000b910   _backup_data_load
0000b961   _CheckSum
0000b963   _CheckSum_bk
0000b99a   _SaveDataProc
0000bb46   _init_eprom_data
0000bbc0   _InitGpio
0000becd   _InitXintf
0000bf61   _I2CA_Init
0000bf73   _I2CA_WriteData
0000bfd0   _I2CA_ReadData
0000c039   _get_eprom_address
0000c09b   _write_code_2_eeprom
0000c0d0   _read_eprom_data
0000c112   _data_under_proc
0000c156   _data_over_proc
0000c19a   _invalid_address_proc
0000c1c3   _check_code_data
0000c212   _load_code2ram
0000c28b   _INT13_ISR
0000c295   _INT14_ISR
0000c29f   _DATALOG_ISR
0000c2a9   _RTOSINT_ISR
0000c2b3   _EMUINT_ISR
0000c2bd   _NMI_ISR
0000c2c7   _ILLEGAL_ISR
0000c2d1   _USER1_ISR
0000c2db   _USER2_ISR
0000c2e5   _USER3_ISR
0000c2ef   _USER4_ISR
0000c2f9   _USER5_ISR
0000c303   _USER6_ISR
0000c30d   _USER7_ISR
0000c317   _USER8_ISR
0000c321   _USER9_ISR
0000c32b   _USER10_ISR
0000c335   _USER11_ISR
0000c33f   _USER12_ISR
0000c349   _SEQ1INT_ISR
0000c353   _SEQ2INT_ISR
0000c35d   _XINT1_ISR
0000c367   _XINT2_ISR
0000c371   _ADCINT_ISR
0000c37b   _TINT0_ISR
0000c385   _WAKEINT_ISR
0000c38f   _EPWM1_TZINT_ISR
0000c399   _EPWM2_TZINT_ISR
0000c3a3   _EPWM3_TZINT_ISR
0000c3ad   _EPWM4_TZINT_ISR
0000c3b7   _EPWM5_TZINT_ISR
0000c3c1   _EPWM6_TZINT_ISR
0000c3cb   _EPWM1_INT_ISR
0000c3d5   _EPWM2_INT_ISR
0000c3df   _EPWM3_INT_ISR
0000c3e9   _EPWM4_INT_ISR
0000c3f3   _EPWM5_INT_ISR
0000c3fd   _EPWM6_INT_ISR
0000c407   _ECAP1_INT_ISR
0000c411   _ECAP2_INT_ISR
0000c41b   _ECAP3_INT_ISR
0000c425   _ECAP4_INT_ISR
0000c42f   _ECAP5_INT_ISR
0000c439   _ECAP6_INT_ISR
0000c443   _EQEP1_INT_ISR
0000c44d   _EQEP2_INT_ISR
0000c457   _SPIRXINTA_ISR
0000c461   _SPITXINTA_ISR
0000c46b   _MRINTB_ISR
0000c475   _MXINTB_ISR
0000c47f   _MRINTA_ISR
0000c489   _MXINTA_ISR
0000c493   _DINTCH1_ISR
0000c49d   _DINTCH2_ISR
0000c4a7   _DINTCH3_ISR
0000c4b1   _DINTCH4_ISR
0000c4bb   _DINTCH5_ISR
0000c4c5   _DINTCH6_ISR
0000c4cf   _I2CINT1A_ISR
0000c4d9   _I2CINT2A_ISR
0000c4e3   _SCIRXINTC_ISR
0000c4ed   _SCITXINTC_ISR
0000c4f7   _SCIRXINTA_ISR
0000c501   _SCITXINTA_ISR
0000c50b   _SCIRXINTB_ISR
0000c515   _SCITXINTB_ISR
0000c51f   _ECAN0INTA_ISR
0000c529   _ECAN1INTA_ISR
0000c533   _ECAN0INTB_ISR
0000c53d   _ECAN1INTB_ISR
0000c547   _XINT3_ISR
0000c551   _XINT4_ISR
0000c55b   _XINT5_ISR
0000c565   _XINT6_ISR
0000c56f   _XINT7_ISR
0000c579   _LVF_ISR
0000c583   _LUF_ISR
0000c58d   _PIE_RESERVED
0000c597   _rsvd_ISR
0000c5a1   _free
0000c5ea   _minit
0000c615   _malloc
0000c670   _realloc
0000c738   _max_free
0000c75a   _free_memory
0000c778   _chkheap
0000c77a   _calloc
0000c795   _linear_eq
0000c7d0   _LPF1
0000c7ef   _Nop
0000c7f2   _PI_Damp_Controller
0000c858   _SetSensorOffset
0000c859   _PowerOnReset
0000c85a   _ulGetTime_mSec
0000c871   _ulGetNow_mSec
0000c875   _delay_msecs
0000c888   _periodic_check
0000c89c   _iGetAinCmd
0000c8a9   _analog_cmd_proc
0000c8ba   _get_command
0000c90f   _get_adc_offset
0000c910   _get_adc_vdc_low
0000c911   _get_adc_vdc_high
0000c912   _InitSysCtrl
0000c91b   _ServiceDog
0000c925   _DisableDog
0000c92d   _InitPll
0000c980   _InitPeripheralClocks
0000ca30   _CsmUnlock
0000ca61   _strtod
0000cb99   _VariInit1
0000cbd2   _VariInit
0000ccbb   _fault_reset
0000ccc1   _driver_enable_proc
0000ccc4   _input_ai_ref_active_proc
0000ccc7   _input_ai_local_remote_proc
0000ccca   _input_ext_fault_b_proc
0000cccd   _input_motor_select_proc
0000ccd0   _input_mb_brake_state_proc
0000ccd3   _input_acel_decel_switch_proc
0000ccd6   _input_ref_tunning_inc_proc
0000ccd9   _input_ref_tunning_dec_proc
0000ccdc   _input_acc_dec_byp_proc
0000ccdf   _input_ext_fault_a_proc
0000ccee   _digital_input_proc
0000cd2b   _digital_port_check
0000cd8c   _digital_out_proc
0000cdd8   _DS1307WriteData
0000ce01   _DS1307ReadData
0000ce2d   _GetTimeAndDateStr
0000ce9e   _WriteTimeToDS1307
0000cef0   LL$$DIV
0000cf2c   LL$$MOD
0000cf66   ULL$$DIV
0000cf95   ULL$$MOD
0000cff7   _RefFunc
0000d0ea   _ramp_proc
0000d0fe   _EPwm_ISC_Enable
0000d11e   _EPwm_OSC_Enable
0000d13e   _EPwm_All_Disable
0000d1df   _dac8412_out
0000d2a8   FD$$ADD
0000d344   _InitCpuTimers
0000d390   _ConfigCpuTimer
0000d3d7   FD$$DIV
0000d462   FS$$DIV
0000d4ea   _cpu_timer0_isr
0000d56f   FD$$MPY
0000d5f2   _cos
0000d653   _sin
0000d6b2   _snprintf
0000d71d   _monitor_proc
0000d755   _GetInputMark
0000d75f   _c_int00
0000d7a5   _atoi
0000d7d6   _ltoa
0000d804   FD$$CMP
0000d82e   L$$DIV
0000d83d   L$$MOD
0000d84b   UL$$DIV
0000d852   UL$$MOD
0000d858   _InitPieCtrl
0000d877   _EnableInterrupts
0000d882   I$$DIV
0000d893   I$$MOD
0000d8a4   _InitPieVectTable
0000d8c6   ___memcpy_ff
0000d8e7   FD$$TOI
0000d908   _strncpy
0000d928   FD$$TOL
0000d947   LL$$CMP
0000d959   ULL$$CMP
0000d965   FS$$TOFD
0000d981   L$$TOFD
0000d99d   _modf
0000d9b7   _serial_com_proc
0000d9d1   C$$EXIT
0000d9d1   _abort
0000d9d3   _exit
0000d9e9   _MemCopy
0000da00   __args_main
0000da15   LL$$MPY
0000da29   _memccpy
0000da3b   FD$$SUB
0000da49   _vf_loop_control
0000da4e   _vf_frequency_control
0000da53   _vf_simple_control
0000da54   _strlen
0000da5e   FD$$NEG
0000da67   __register_unlock
0000da6b   __register_lock
0000da6f   __nop
0000da70   _strcpy
0000da81   _HardwareParameterVerification
0000da83   _COMMON_VECT_CNTL_ParameterVerification
0000da85   _SL_TORQUE_CNTL_Parameter
0000da87   _SL_SPEED_CNTL_Parameter
0000da89   _memset
0000da90   _estim_ReqLeq_pwm
0000da91   _estim_Rs_pwm
0000da92   _estim_Ls_pwm
0000da93   _estim_Jm_pwm
0000da94   _parameter_estimation
0000da96   _SpaceVectorModulation
0000da9a   _VoltageEstimation
0000da9b   _hyd_unit_loop_proc
0000da9d   _hyd_unit_control
0000da9e   _SL_SpeedCntl_SFRF
0000da9f   _SL_VectCntl_SFRF
0000daa0   _set_dac_point
0000daa1   _test_run
0000daa2   ___etext__
0000daa2   etext
0000eef8   _PieVectTableInit
0000f190   __ctypes_
0000f2c0   _code_protect_IGBT_off
0000f2c1   _code_dac_select_ch1
0000f2c2   _code_dac_select_ch2
0000f2c3   _code_protect_ex_trip_off
0000f2c4   _code_protect_IGBT2_off
0000f2c5   _ramp_func_mode
0000f2c6   _code_protect_inhibit_on
0000f2c7   _motor_ctrl_mode
0000f2c8   _motor_direction_change
0000f2c9   _code_protect_Iadc_off
0000f2ca   _code_protect_over_I_off
0000f2cb   _code_protect_uv_off
0000f2cc   _code_protect_ov_off
0000f2cd   _giAdcAI_I2
0000f2ce   _xcon_data
0000f2cf   _init_charge_flag
0000f2d0   _fIn_Ir_fault_cnt
0000f2d1   _giAdcAI_V2
0000f2d2   _debug1
0000f2d3   _e_stop
0000f2d4   _uConv_CtrlOn
0000f2d5   _code_dac_select_ch3
0000f2d6   _giAdcAI_V1
0000f2d7   _giAdcAI_I1
0000f2d8   _code_dac_select_ch4
0000f2d9   _gAutoTuningSelect
0000f2da   _gControlMode
0000f2db   _gStartInitFinish
0000f2dc   _gPWMTripCode
0000f2dd   _gTripSavePoint
0000f2de   _gMachineState
0000f2df   _gSciaTxOutPoint
0000f2e0   _gSciaTxEndFlag
0000f2e1   _gSciInFlag
0000f2e2   _giSciCmdAddr
0000f2e3   _gDeChargeFlag
0000f2e4   _gSciaTxInPoint
0000f2e5   _giSciCmdFunction
0000f2e6   _gTripSaveFlag
0000f2e7   _EepromSaveFlag
0000f2e8   _guiEpwmPeriodCount
0000f2e9   _run_input_select
0000f2ea   _Init_RiseUp_Flag
0000f2eb   _gRunFlag
0000f2ec   _giAdcVdc
0000f2ed   _giAdcAnaCmd
0000f2ee   _giAdcUphase
0000f2ef   _gTripFlag
0000f2f0   _Flag_TripDataBackup
0000f2f1   _giAdcVphase
0000f2f2   _InOCFlag
0000f2f3   _disp_fnd_mode
0000f2f4   _INV_STEP_CNT
0000f2f5   _uOut_Flag_OM
0000f2f6   _fIn_It_fault_cnt
0000f2f7   _adc_R_offset
0000f2f8   _adc_v_offset
0000f2f9   _fOut_Is_fault_cnt
0000f2fa   _adc_S_offset
0000f2fb   _Fault_Code
0000f2fc   _CON_PWM_Flag
0000f2fd   _INV_PWM_Flag
0000f2fe   _fOut_It_fault_cnt
0000f2ff   _DC_fault_cnt
0000f300   _fIn_Is_fault_cnt
0000f301   _wr_ctrl_index
0000f302   _uInv_CtrlOn
0000f303   _uConv_LOW_DC_fault_cnt
0000f305   _terminal_input_state
0000f306   _scib_rx_msg_flag
0000f307   _relay_flag
0000f308   _giAdcTemp
0000f309   _cmdtest
0000f30a   _protect_reg
0000f30b   _adc_u_offset
0000f30c   _inv_Fs_B
0000f30e   _I_QS_rat
0000f310   _inv_GM_Is_square_minus_1
0000f312   _Fs_B
0000f314   _Freq_slip_rat
0000f316   _S_lin
0000f318   _Ki_wr
0000f31a   _inv_I_QS_rat
0000f31c   _wn_wr
0000f31e   _Kp_wr
0000f320   _S_rat
0000f322   _wr_FilterPole
0000f324   _Re_Power
0000f326   _Vs_rat
0000f328   _Im_Power
0000f32a   _Is_rat
0000f32c   _inv_Ts
0000f32e   _Ts
0000f330   _gulStartCount
0000f332   _gfRunTime
0000f334   _wp_Is
0000f336   _Ki_Is
0000f338   _wp_Is_Coeff
0000f33a   _Kp_Is_Coeff
0000f33c   _inv_GM_Is
0000f33e   _inv_Is_rat
0000f340   _Freq_set
0000f342   _Kp_Is
0000f344   _we_rat
0000f346   _inv_motor_rate_hz
0000f348   _Vs_S
0000f34a   _Vs_R
0000f34c   _Te_max
0000f34e   _Is_S
0000f350   _Is_R
0000f352   _Vs_T
0000f354   _Is_T
0000f356   _Vs_ref
0000f358   _Max_Trq_Coeff
0000f35a   _Freq_slip
0000f35c   _Te
0000f35e   _Te_ref
0000f360   _Freq_ref
0000f362   _LPF_Te
0000f364   _reference_out
0000f366   _reference_in
0000f368   _reference1
0000f36a   _Freq_out
0000f36c   _Vs_max
0000f36e   _reference0
0000f370   _rpm
0000f372   _theta
0000f374   _frequency
0000f376   _CosTheta
0000f378   _we
0000f37a   _we_in
0000f37c   _SinTheta
0000f37e   _Vdc
0000f380   _inv_Ls
0000f382   _inv_Tr
0000f384   _sigma_minus_1_div_sigma_Ls
0000f386   _sigma_Tr
0000f388   _Tr
0000f38a   _inv_sigma_Ls
0000f38c   _Lm_div_Lr
0000f38e   _Is_mag_rms
0000f390   _Is_mag
0000f392   _inv_Ls_plus_sigma_Ls
0000f394   _Is_max
0000f396   _Lr_div_Lm
0000f398   _sigma_Ls_div_1_plus_sigma
0000f39a   _Power_gap
0000f39c   _Power_core_rat
0000f39e   _del_Vs_comp
0000f3a0   _Slip
0000f3a2   _we0
0000f3a4   _Vs_IR_comp
0000f3a6   _Power_core
0000f3a8   _sigma_Ls
0000f3aa   _sigma
0000f3ac   _inv_sigma_Tr
0000f3ae   _C_ce
0000f3b0   _C_ce_nF
0000f3b2   _SlipCoeff
0000f3b4   _inv_C_ce
0000f3b6   _motor_rate_effiency
0000f3b8   _motor_pole
0000f3ba   _Rr
0000f3bc   _motor_rate_hz
0000f3be   _motor_rate_current
0000f3c0   _Rs
0000f3c2   _Jm
0000f3c4   _Lm
0000f3c6   _u_phase_I_sense_zero
0000f3c8   _Ls
0000f3ca   _motor_rate_rpm
0000f3cc   _I_sense_value
0000f3ce   _Lr
0000f3d0   _code_Vs_T_offseter
0000f3d2   _code_Vs_T_scaler
0000f3d4   _code_adc_Vs_T_high
0000f3d6   _code_Vs_S_calc_low
0000f3d8   _code_adc_Vs_S_high
0000f3da   _code_adc_Vs_T_low
0000f3dc   _code_LPF_cutoff_hz_V
0000f3de   _code_LPF_cutoff_hz_I
0000f3e0   _motor_rate_volt
0000f3e2   _code_Vs_T_calc_low
0000f3e4   _code_Vs_S_calc_high
0000f3e6   _motor_rate_power
0000f3e8   _LPF_Is
0000f3ea   _Vs_Coeff_Leq_Req
0000f3ec   _LPF_Vs_Square
0000f3ee   _Data_Init
0000f3f0   _Data_Load
0000f3f2   _LPF_Is_Square
0000f3f4   _inv_Freq_rat
0000f3f6   _Freq_rat
0000f3f8   _Vdc_fnd_data
0000f3fa   _LPF_Re_Power
0000f3fc   _GainUpdateTimer
0000f3fe   _time_t
0000f400   _Is_Leq_Req
0000f402   _vdc_sense_zero
0000f404   _v_phase_I_sense_span
0000f406   _igbt_pwm_freq
0000f408   _u_phase_I_sense_span
0000f40a   _code_Vs_T_calc_high
0000f40c   _vdc_sense_span
0000f40e   _S_phase_I_sense_span
0000f410   _S_phase_I_sense_zero
0000f412   _Data_Backup
0000f414   _R_phase_I_sense_zero
0000f416   _v_phase_I_sense_zero
0000f418   _Data_Check
0000f41a   _R_phase_I_sense_span
0000f41c   _analog_cmd_in_span1
0000f41e   _analog_cmd_in_zero1
0000f420   _analog_cmd_in_span2
0000f422   _code_speed4
0000f424   _code_speed3
0000f426   _analog_cmd_in_zero2
0000f428   _code_dac_offset_ch2
0000f42a   _code_dac_scale_ch2
0000f42c   _code_dac_offset_ch3
0000f42e   _code_dac_scale_ch1
0000f430   _code_speed5
0000f432   _code_dac_scale_ch3
0000f434   _code_dac_offset_ch1
0000f436   _accel_time1
0000f438   _OverCurLimit
0000f43a   _accel_time2
0000f43c   _func_flag
0000f43e   _gdouSciCmdData
0000f440   _decel_time1
0000f442   _min_vf_ref
0000f444   _jog_speed
0000f446   _code_speed2
0000f448   _decel_time2
0000f44a   _AnaCmdReference
0000f44c   _digital_speed2
0000f44e   _code_Vs_R_scaler
0000f450   _code_Vdc_calc_high
0000f452   _code_adc_Vs_R_low
0000f454   _code_adc_vdc_high
0000f456   _code_adc_vdc_low
0000f458   _code_Vs_R_offseter
0000f45a   _code_Vs_S_scaler
0000f45c   _code_Vs_R_calc_high
0000f45e   _code_adc_Vs_S_low
0000f460   _code_adc_Vs_R_high
0000f462   _code_Vdc_calc_low
0000f464   _code_Vs_S_offseter
0000f466   _code_Vs_R_calc_low
0000f468   _over_volt_set
0000f46a   _over_current_level
0000f46c   _over_speed_level
0000f46e   _code_dac_scale_ch4
0000f470   _btn_start_ref
0000f472   _under_volt_set
0000f474   _over_I_time
0000f476   _Is_Max_Coeff
0000f478   _code_Vdc_offseter
0000f47a   _e_thermal_level
0000f47c   _code_dac_offset_ch4
0000f47e   _code_Vdc_scaler
0000f480   _pre_charge_time
0000f482   _uIn_Flag_OM
0000f484   _fIn_a
0000f486   _fIn_cmpr2
0000f488   _fIn_max
0000f48a   _fIn_Vc_ref
0000f48c   _fIn_cmpr1
0000f48e   _fIn_min
0000f490   _fIn_PHASE_CMPR
0000f492   _fIn_PWM_T
0000f494   _fIn_PHASE_CMPT
0000f496   _fIn_PWM_R
0000f498   _fIn_cmpr3
0000f49a   _fIn_PHASE_CMPS
0000f49c   _fIn_PWM_S
0000f49e   _fOut_Vqe_integ_pre
0000f4a0   _fOut_Vqe_Ki
0000f4a2   _fOut_Vqe_Ffest
0000f4a4   _fOut_Vde_ref_out
0000f4a6   _fOut_Vde_Kp
0000f4a8   _fOut_Vqe_limit
0000f4aa   _fOut_Vqe_integ
0000f4ac   _fIn_Vqs_axis
0000f4ae   _fIn_Vds_axis
0000f4b0   _fIn_Vb_ref
0000f4b2   _fOut_Vqe_Kp
0000f4b4   _fOut_Vqe_axis_out
0000f4b6   _fIn_Va_ref
0000f4b8   _fOut_Vqe_ref_out
0000f4ba   _fIn_DC_Voltage_err
0000f4bc   _fIn_Iqe_axis
0000f4be   _DC_LINK_N
0000f4c0   _RMS_Iin
0000f4c2   _beta_cur
0000f4c4   _DC_LINK_P
0000f4c6   _fIn_Ide_axis
0000f4c8   _b1
0000f4ca   _b0
0000f4cc   _div_a0
0000f4ce   _a1
0000f4d0   _a0
0000f4d2   _b2
0000f4d4   _a2
0000f4d6   _Ureal_rms
0000f4d8   _Cos_theta
0000f4da   _Ude_integ
0000f4dc   _fOut_Va_ref
0000f4de   _fOut_Vds_axis_out
0000f4e0   _Ude_err
0000f4e2   _Sin_theta
0000f4e4   _theta_pll
0000f4e6   _SysWe
0000f4e8   _alpha_cur
0000f4ea   _Ude_Limit
0000f4ec   _Ude_integ_pre
0000f4ee   _theta60
0000f4f0   _fIn_Iqe_err
0000f4f2   _fIn_Iqe_axis_ref
0000f4f4   _fIn_Ide_Ffest
0000f4f6   _fOut_PWM_S
0000f4f8   _fOut_PWM_R
0000f4fa   _fIn_Ide_err
0000f4fc   _fIn_Ide_axis_ref
0000f4fe   _fOut_theta_pll
0000f500   _fOut_SysWe
0000f502   _fOut_Sin_theta
0000f504   _fIn_Ide_out
0000f506   _fIn_Iqe_Ffest
0000f508   _fOut_Cos_theta
0000f50a   _fIn_Iqe_out
0000f50c   _fOut_PHASE_CMPT
0000f50e   _fOut_PHASE_CMPS
0000f510   _fOut_Vb_ref
0000f512   _fOut_PWM_T
0000f514   _fOut_Vqs_axis_out
0000f516   _fOut_PHASE_CMPR
0000f518   _fOut_cmpr1
0000f51a   _fOut_a
0000f51c   _fOut_cmpr3
0000f51e   _fOut_max
0000f520   _fOut_Vc_ref
0000f522   _fOut_cmpr2
0000f524   _fOut_min
0000f526   _fOut_Vqe_err
0000f528   _fOut_Vde_err
0000f52a   _fOut_Vde_integ
0000f52c   _fOut_Vqe_axis_ref
0000f52e   _P_out
0000f530   _RMS_Vout
0000f532   _fOut_Vqe_axis_cmd
0000f534   _fOut_Vde_axis_ref
0000f536   _fOut_Vde_Ffest
0000f538   _pll_out
0000f53a   _fOut_Vde_integ_pre
0000f53c   _fOut_Vde_Ki
0000f53e   _fOut_Vde_axis_out
0000f540   _fOut_Vde_limit
0000f542   _Out_fIn_Iqe_axis
0000f544   _Out_fIn_Ide_axis
0000f546   _Voltage_Output_ST
0000f548   _Out_beta_cur
0000f54a   _Out_alpha_cur
0000f54c   _Voltage_Output_RS
0000f54e   _RMS_Iout
0000f550   _fOut_Vqs_axis
0000f552   _fOut_Vds_axis
0000f554   _fOut_Vqe_axis
0000f556   _Ubn_out
0000f558   _Uan_out
0000f55a   _fOut_Vde_axis
0000f55c   _Ucn_out
0000f55e   _fIn_Ide_integ
0000f560   _fIn_Vde_axis
0000f562   _fIn_Vqe_axis
0000f564   _fIn_Ide_integ_pre
0000f566   _Ubn_beta
0000f568   _Ubn_alpha
0000f56a   _Ucn_beta
0000f56c   _fIn_DC_Voltage_integ
0000f56e   _fIn_DC_Voltage_ref_cmd
0000f570   _fIn_DC_Voltage_out
0000f572   _fIn_DC_Voltage_integ_pre
0000f574   _fIn_Iqe_integ
0000f576   _Ucn_alpha
0000f578   _fIn_DC_Voltage_ref
0000f57a   _Voltage_Output_T
0000f57c   _Voltage_Output_S
0000f57e   _Ubn
0000f580   _Uan
0000f582   _Current_Output_T
0000f584   _Current_Output_S
0000f586   _Voltage_Output_R
0000f588   _Uan_alpha
0000f58a   _Ucnpu
0000f58c   _fIn_Iqe_integ_pre
0000f58e   _Uan_beta
0000f590   _Ucn
0000f592   _fIn_Ib
0000f594   _Ubnpu
0000f596   _inv_code_dac_scale_ch4
0000f598   _inv_code_dac_scale_ch3
0000f59a   _Vdc_calc_offset
0000f59c   _Vdc_factor
0000f59e   _analog_ref_b
0000f5a0   _analog_ref_a
0000f5a2   _inv_code_dac_scale_ch2
0000f5a4   _Vs_T_factor
0000f5a6   _Vs_S_calc_offset
0000f5a8   _ref_time
0000f5aa   _Vs_T_calc_offset
0000f5ac   _Vs_R_factor
0000f5ae   _inv_code_dac_scale_ch1
0000f5b0   _Vs_S_factor
0000f5b2   _LPF_Ia_out
0000f5b4   _pCoeff_V2
0000f5b6   _LPF_Ia_feed
0000f5b8   _LPF_Ia_in
0000f5ba   _pCoeff_I1
0000f5bc   _Uanpu
0000f5be   _pCoeff_V1
0000f5c0   _LPF_Vdc_in
0000f5c2   _LPF_Vdc_out
0000f5c4   _Vs_R_calc_offset
0000f5c6   _LPF_Vdc_feed
0000f5c8   _LPF_Ib_out
0000f5ca   _pCoeff_I2
0000f5cc   _LPF_Ib_feed
0000f5ce   _Voltage_Input_ST
0000f5d0   _SUM_DC_LINK
0000f5d2   _Uqe_pll
0000f5d4   _fSysAbcLpfCoeff2
0000f5d6   _fSysDqeLpfCoeff1
0000f5d8   _Voltage_Input_RS
0000f5da   _Upc
0000f5dc   _Up_alpha
0000f5de   _Upa
0000f5e0   _Ude_pll
0000f5e2   _fSysAbcLpfCoeff1
0000f5e4   _Upb
0000f5e6   _Current_Input_R
0000f5e8   _Current_Input_S
0000f5ea   _VDCCoeff1
0000f5ec   _Current_Output_R
0000f5ee   _LPF_Ib_in
0000f5f0   _VDCCoeff2
0000f5f2   _fSysFreqCoeff1
0000f5f4   _fSysFreqCoeff2
0000f5f6   _Up_beta
0000f5f8   _SOCCoeff2
0000f5fa   _Current_Input_T
0000f5fc   _fSysDqeLpfCoeff2
0000f5fe   _SOCCoeff1
0000f600   _DutyCount
0000f604   _LPF_Current_Output_T
0000f608   _LPF_Current_Input_R
0000f60c   _Is_dq
0000f610   _LPF_Current_Input_T
0000f614   _LPF_fIn_Ide_axis
0000f618   _LPF_Current_Output_S
0000f61c   _LPF_Current_Input_S
0000f620   _LPF_Voltage_Input_RS
0000f624   _LPF_DCLINK_voltage
0000f628   _LPF_Voltage_Output_R
0000f62c   _LPF_Voltage_Output_T
0000f630   _LPF_Current_Output_R
0000f634   _LPF_Voltage_Input_ST
0000f638   _LPF_Voltage_Output_S
0000f63c   _LPF_del_freq
0000f640   _LPF_Reactive
0000f644   _LPF_Urmsp
0000f648   _LPF_SOC
0000f64c   _LPF_Ude_pll
0000f650   _LPF_fIn_Iqe_axis
0000f654   _LPF_Active
0000f658   _LPF_Uqe_pll
0000f65c   _DutyRatio
0000f662   _Is_abc
0000f668   _DF_Ubn
0000f672   _DF_Ucn
0000f680   _DF_Uan
0000f68a   _gStr2
0000f694   _adc_result
0000f6a4   _gSciaRxBuf
0000f6c0   _gSciaTxBuf
0000f6d8   _MonitorMsg
0000f700   _code_inform
0000f740   _gStr1
0000f780   _TripInfoNow
0000f800   _TripInfo
0000f852   _CpuTimer1
0000f85a   _CpuTimer2
0000f862   _CpuTimer0
0000f86a   _InMCOn
0000f86b   _ProgramCnt
0000f86c   _INMC_Flag
0000f86d   _OUTMC_Flag
0000f86e   _Delay_cnt2
0000f86f   _IrtCnt
0000f870   _RUN_FLAG
0000f871   _Delay_cnt
0000f872   _ConvStartCnt
0000f873   _DC_Link_Cnt
0000f874   _Init_Charge_Flag
0000f875   _iCnt
0000f876   _FREQ_CNT
0000f877   _testiCnt
0000f878   _testMax
0000f87a   _Ex_out
0000f87c   __unlock
0000f87e   __lock
0000f880   _scib_tx_end_addr
0000f881   _scib_tx_start_addr
0000f883   _scib_rx_end_addr
0000f884   _scib_rx_start_addr
0000f888   _TimeInput
0000f8a6   _scib_rx_msg_box
0000f8c0   _scib_tx_msg_box
0000f932   __cleanup_ptr
0000f934   __dtors_ptr
0000f93c   _errno
0000f93d   _PartIdRegs
00100000   _ZONE6_BUF
0020fc00   _ZONE7_BUF
0020fd00   __sys_memory
0033fff8   _CsmPwl
00380080   _ADC_cal
ffffffff   ___TI_pprof_out_hndl
ffffffff   ___TI_prof_var_size
ffffffff   ___TI_prof_var_start
ffffffff   ___binit__
ffffffff   ___c_args__
ffffffff   ___pinit__
ffffffff   binit
ffffffff   pinit

[895 symbols]
