******************************************************************************
        TMS320C2000 COFF Linker PC v5.0.1                      
******************************************************************************
>> Linked Mon Jan 02 10:41:45 2012

OUTPUT FILE NAME:   <./Debug/BumHanInv.out>
ENTRY POINT SYMBOL: "_c_int00"  address: 0032040e


MEMORY CONFIGURATION

         name            origin    length      used     unused   attr    fill
----------------------  --------  ---------  --------  --------  ----  --------
PAGE 0:
  ZONE0                 00004000   00001000  00000100  00000f00  RWIX
  RAML0                 00008000   00001000  00000027  00000fd9  RWIX
  RAML1                 00009000   00001000  00000000  00001000  RWIX
  RAML2                 0000a000   00001000  00000000  00001000  RWIX
  RAML3                 0000b000   00001000  00000000  00001000  RWIX
  ZONE6                 00100000   00100000  00010000  000f0000  RWIX
  ZONE7A                00200000   0000fc00  00000100  0000fb00  RWIX
  FLASHH                00300000   00008000  00000000  00008000  RWIX
  FLASHG                00308000   00008000  00000000  00008000  RWIX
  FLASHF                00310000   00008000  00000000  00008000  RWIX
  FLASHD                00318000   00010000  00008753  000078ad  RWIX
  FLASHC                00328000   00008000  00000000  00008000  RWIX
  FLASHA                00338000   00007f80  00001f5d  00006023  RWIX
  CSM_RSVD              0033ff80   00000076  00000000  00000076  RWIX
  BEGIN                 0033fff6   00000002  00000002  00000000  RWIX
  CSM_PWL               0033fff8   00000008  00000000  00000008  RWIX
  ADC_CAL               00380080   00000009  00000007  00000002  RWIX
  OTP                   00380400   00000400  00000000  00000400  RWIX
  IQTABLES              003fe000   00000b50  00000000  00000b50  RWIX
  IQTABLES2             003feb50   0000008c  00000000  0000008c  RWIX
  FPUTABLES             003febdc   000006a0  00000000  000006a0  RWIX
  ROM                   003ff27c   00000d44  00000000  00000d44  RWIX
  RESET                 003fffc0   00000002  00000000  00000002  RWIX
  VECTORS               003fffc2   0000003e  00000000  0000003e  RWIX

PAGE 1:
  BOOT_RSVD             00000000   00000050  00000000  00000050  RWIX
  RAMM0                 00000050   000003b0  00000300  000000b0  RWIX
  RAMM1                 00000400   00000400  00000300  00000100  RWIX
  DEV_EMU               00000880   00000180  000000d0  000000b0  RWIX
  FLASH_REGS            00000a80   00000060  00000008  00000058  RWIX
  CSM                   00000ae0   00000010  00000010  00000000  RWIX
  ADC_MIRROR            00000b00   00000010  00000010  00000000  RWIX
  XINTF                 00000b20   00000020  0000001e  00000002  RWIX
  CPU_TIMER0            00000c00   00000008  00000008  00000000  RWIX
  CPU_TIMER1            00000c08   00000008  00000008  00000000  RWIX
  CPU_TIMER2            00000c10   00000008  00000008  00000000  RWIX
  PIE_CTRL              00000ce0   00000020  0000001a  00000006  RWIX
  PIE_VECT              00000d00   00000100  00000100  00000000  RWIX
  DMA                   00001000   00000200  000000e0  00000120  RWIX
  MCBSPA                00005000   00000040  00000025  0000001b  RWIX
  MCBSPB                00005040   00000040  00000025  0000001b  RWIX
  ECANA                 00006000   00000040  00000034  0000000c  RWIX
  ECANA_LAM             00006040   00000040  00000040  00000000  RWIX
  ECANA_MOTS            00006080   00000040  00000040  00000000  RWIX
  ECANA_MOTO            000060c0   00000040  00000040  00000000  RWIX
  ECANA_MBOX            00006100   00000100  00000100  00000000  RWIX
  ECANB                 00006200   00000040  00000034  0000000c  RWIX
  ECANB_LAM             00006240   00000040  00000040  00000000  RWIX
  ECANB_MOTS            00006280   00000040  00000040  00000000  RWIX
  ECANB_MOTO            000062c0   00000040  00000040  00000000  RWIX
  ECANB_MBOX            00006300   00000100  00000100  00000000  RWIX
  EPWM1                 00006800   00000022  00000022  00000000  RWIX
  EPWM2                 00006840   00000022  00000022  00000000  RWIX
  EPWM3                 00006880   00000022  00000022  00000000  RWIX
  EPWM4                 000068c0   00000022  00000022  00000000  RWIX
  EPWM5                 00006900   00000022  00000022  00000000  RWIX
  EPWM6                 00006940   00000022  00000022  00000000  RWIX
  ECAP1                 00006a00   00000020  00000020  00000000  RWIX
  ECAP2                 00006a20   00000020  00000020  00000000  RWIX
  ECAP3                 00006a40   00000020  00000020  00000000  RWIX
  ECAP4                 00006a60   00000020  00000020  00000000  RWIX
  ECAP5                 00006a80   00000020  00000020  00000000  RWIX
  ECAP6                 00006aa0   00000020  00000020  00000000  RWIX
  EQEP1                 00006b00   00000040  00000040  00000000  RWIX
  EQEP2                 00006b40   00000040  00000040  00000000  RWIX
  GPIOCTRL              00006f80   00000040  0000002e  00000012  RWIX
  GPIODAT               00006fc0   00000020  00000020  00000000  RWIX
  GPIOINT               00006fe0   00000020  0000000a  00000016  RWIX
  SYSTEM                00007010   00000020  00000020  00000000  RWIX
  SPIA                  00007040   00000010  00000010  00000000  RWIX
  SCIA                  00007050   00000010  00000010  00000000  RWIX
  XINTRUPT              00007070   00000010  00000010  00000000  RWIX
  ADC                   00007100   00000020  0000001e  00000002  RWIX
  SCIB                  00007750   00000010  00000010  00000000  RWIX
  SCIC                  00007770   00000010  00000010  00000000  RWIX
  I2CA                  00007900   00000040  00000022  0000001e  RWIX
  RAML4                 0000c000   00001000  000008eb  00000715  RWIX
  RAML5                 0000d000   00001000  00000000  00001000  RWIX
  RAML6                 0000e000   00001000  00000000  00001000  RWIX
  RAML7                 0000f000   00001000  00000000  00001000  RWIX
  ZONE7B                0020fc00   00000400  00000000  00000400  RWIX
  FLASHB                00330000   00008000  00000000  00008000  RWIX
  CSM_PWL               0033fff8   00000008  00000008  00000000  RWIX


SECTION ALLOCATION MAP

 output                                  attributes/
section   page    origin      length       input sections
--------  ----  ----------  ----------   ----------------
.data      0    00000000    00000000     UNINITIALIZED

ZONE0DATA 
*          0    00004000    00000100     UNINITIALIZED
                  00004000    00000100     main.obj (ZONE0DATA)

ZONE6DATA 
*          0    00100000    00010000     UNINITIALIZED
                  00100000    00010000     main.obj (ZONE6DATA)

ZONE7DATA 
*          0    00200000    00000100     UNINITIALIZED
                  00200000    00000100     main.obj (ZONE7DATA)

.text      0    00318000    0000872c     
                  00318000    00000020     rts2800_fpu32.lib : sqrt.obj (.text)
                  00318020    00001696     auto_tuning.obj (.text)
                  003196b6    00001571     code_group_all.obj (.text)
                  0031ac27    00000990     rts2800_fpu32.lib : _printfi.obj (.text)
                  0031b5b7    0000091a     SL_Vect.obj (.text)
                  0031bed1    00000767     Set_Par.obj (.text)
                  0031c638    0000064c     scibv10.obj (.text)
                  0031cc84    0000053e     delta_trip_proc.obj (.text)
                  0031d1c2    00000454     main.obj (.text)
                  0031d616    000003c8     code_proc.obj (.text)
                  0031d9de    000003c5     SVM.obj (.text)
                  0031dda3    0000038d     regen_dsp_110513_gpio.obj (.text)
                  0031e130    0000032a     udd_eeprom.obj (.text)
                  0031e45a    00000316     DSP2833x_DefaultIsr.obj (.text)
                  0031e770    00000308     ParameterSet.obj (.text)
                  0031ea78    000002d9     common_module.obj (.text)
                  0031ed51    00000247     analog.obj (.text)
                  0031ef98    000001f4     rts2800_fpu32.lib : memory.obj (.text)
                  0031f18c    000001e2     vf_contol.obj (.text)
                  0031f36e    0000014f     DSP2833x_SysCtrl.obj (.text)
                  0031f4bd    00000138     rts2800_fpu32.lib : strtod.obj (.text)
                  0031f5f5    0000012e     set_dac_point.obj (.text)
                  0031f723    0000011d     delta_digital_inout.obj (.text)
                  0031f840    00000118     DS1307.obj (.text)
                  0031f958    0000010d     switching_irq.obj (.text)
                  0031fa65    00000109     test_run.obj (.text)
                  0031fb6e    00000107     rts2800_fpu32.lib : ll_div.obj (.text)
                  0031fc75    00000107     RefFunc.obj (.text)
                  0031fd7c    000000ee     dac_8412.obj (.text)
                  0031fe6a    000000ed     back2back_control.obj (.text)
                  0031ff57    0000009c     rts2800_fpu32.lib : fd_add.obj (.text)
                  0031fff3    00000093     DSP2833x_CpuTimers.obj (.text)
                  00320086    0000008b     rts2800_fpu32.lib : fd_div.obj (.text)
                  00320111    00000088                       : fs_div.obj (.text)
                  00320199    00000085     udd_timer_irq.obj (.text)
                  0032021e    00000083     rts2800_fpu32.lib : fd_mpy.obj (.text)
                  003202a1    00000061                       : cos.obj (.text)
                  00320302    0000005f                       : sin.obj (.text)
                  00320361    00000058                       : snprintf.obj (.text)
                  003203b9    00000055     MonitorProc.obj (.text)
                  0032040e    00000046     rts2800_fpu32.lib : boot.obj (.text)
                  00320454    00000031                       : atoi.obj (.text)
                  00320485    0000002e                       : ltoa.obj (.text)
                  003204b3    0000002a                       : l_div.obj (.text)
                  003204dd    0000002a                       : fd_cmp.obj (.text)
                  00320507    0000002a     DSP2833x_PieCtrl.obj (.text)
                  00320531    00000022     rts2800_fpu32.lib : i_div.obj (.text)
                  00320553    00000022     DSP2833x_PieVect.obj (.text)
                  00320575    00000021     rts2800_fpu32.lib : memcpy_ff.obj (.text)
                  00320596    00000021                       : fd_toi.obj (.text)
                  003205b7    00000020                       : strncpy.obj (.text)
                  003205d7    0000001f                       : fd_tol.obj (.text)
                  003205f6    0000001e                       : ll_cmp.obj (.text)
                  00320614    0000001c                       : l_tofd.obj (.text)
                  00320630    0000001c                       : fs_tofd.obj (.text)
                  0032064c    0000001a                       : modf.obj (.text)
                  00320666    0000001a     serial_com.obj (.text)
                  00320680    00000018     rts2800_fpu32.lib : exit.obj (.text)
                  00320698    00000017     DSP2833x_MemCopy.obj (.text)
                  003206af    00000015     rts2800_fpu32.lib : args_main.obj (.text)
                  003206c4    00000014                       : ll_mpy.obj (.text)
                  003206d8    00000012                       : memccpy.obj (.text)
                  003206ea    0000000e                       : fd_sub.obj (.text)
                  003206f8    0000000a                       : strlen.obj (.text)
                  00320702    00000009                       : _lock.obj (.text)
                  0032070b    00000009                       : strcpy.obj (.text)
                  00320714    00000009                       : fd_neg.obj (.text)
                  0032071d    00000008     DSP2833x_CodeStartBranch.obj (.text)
                  00320725    00000007     rts2800_fpu32.lib : memset.obj (.text)

ramfuncs   0    0032072c    00000027     RUN ADDR = 00008000
                  0032072c    00000023     DSP2833x_SysCtrl.obj (ramfuncs)
                  0032074f    00000004     DSP2833x_usDelay.obj (ramfuncs)

.pinit     0    00328000    00000000     UNINITIALIZED

IQmath     0    00328000    00000000     UNINITIALIZED

.econst    0    00338000    000018ef     
                  00338000    00000ba9     code_group_all.obj (.econst)
                  00338ba9    00000001     --HOLE-- [fill = 0]
                  00338baa    00000449     auto_tuning.obj (.econst)
                  00338ff3    00000001     --HOLE-- [fill = 0]
                  00338ff4    0000019e     scibv10.obj (.econst)
                  00339192    0000016b     delta_trip_proc.obj (.econst)
                  003392fd    00000001     --HOLE-- [fill = 0]
                  003392fe    00000102     code_proc.obj (.econst)
                  00339400    00000100     DSP2833x_PieVect.obj (.econst)
                  00339500    000000bc     common_module.obj (.econst)
                  003395bc    000000b5     udd_eeprom.obj (.econst)
                  00339671    00000001     --HOLE-- [fill = 0]
                  00339672    00000057     test_run.obj (.econst)
                  003396c9    00000001     --HOLE-- [fill = 0]
                  003396ca    00000041     vf_contol.obj (.econst)
                  0033970b    00000001     --HOLE-- [fill = 0]
                  0033970c    0000003c     rts2800_fpu32.lib : _printfi.obj (.econst)
                  00339748    00000036     main.obj (.econst)
                  0033977e    0000002f     Set_Par.obj (.econst)
                  003397ad    00000001     --HOLE-- [fill = 0]
                  003397ae    00000014     rts2800_fpu32.lib : strtod.obj (.econst:_digits)
                  003397c2    00000010     delta_digital_inout.obj (.econst)
                  003397d2    0000000f     MonitorProc.obj (.econst)
                  003397e1    00000001     --HOLE-- [fill = 0]
                  003397e2    0000000c     rts2800_fpu32.lib : strtod.obj (.econst:_powerof10)
                  003397ee    00000101                       : ctype.obj (.econst:__ctypes_)

.cinit     0    003398ef    0000056c     
                  003398ef    0000000a     rts2800_fpu32.lib : exit.obj (.cinit)
                  003398f9    0000000a                       : _lock.obj (.cinit)
                  00339903    00000005     common_module.obj (.cinit)
                  00339908    00000015     delta_trip_proc.obj (.cinit)
                  0033991d    000004f2     main.obj (.cinit)
                  00339e0f    00000005     MonitorProc.obj (.cinit)
                  00339e14    00000035     scibv10.obj (.cinit)
                  00339e49    00000004     switching_irq.obj (.cinit)
                  00339e4d    00000005     vf_contol.obj (.cinit)
                  00339e52    00000004     rts2800_fpu32.lib : memory.obj (.cinit)
                  00339e56    00000004                       : errno.obj (.cinit)
                  00339e5a    00000001     --HOLE-- [fill = 0]

.switch    0    00339e5c    00000102     
                  00339e5c    00000102     code_group_all.obj (.switch)

csm_rsvd   0    0033ff80    00000000     UNINITIALIZED

codestart 
*          0    0033fff6    00000002     
                  0033fff6    00000002     DSP2833x_CodeStartBranch.obj (codestart)

csmpasswds 
*          0    0033fff8    00000000     UNINITIALIZED

.adc_cal   0    00380080    00000007     NOLOAD SECTION
                  00380080    00000007     DSP2833x_ADC_cal.obj (.adc_cal)

IQmathTables 
*          0    003fe000    00000000     NOLOAD SECTION

IQmathTables2 
*          0    003feb50    00000000     NOLOAD SECTION

FPUmathTables 
*          0    003febdc    00000000     NOLOAD SECTION

.reset     0    003fffc0    00000002     DSECT
                  003fffc0    00000002     rts2800_fpu32.lib : boot.obj (.reset)

vectors    0    003fffc2    00000000     DSECT

.bss       1    00000000    00000000     UNINITIALIZED

.sysmem    1    00000050    00000300     UNINITIALIZED

.esysmem   1    00000400    00000000     UNINITIALIZED

.stack     1    00000400    00000300     UNINITIALIZED

DevEmuRegsFile 
*          1    00000880    000000d0     UNINITIALIZED
                  00000880    000000d0     DSP2833x_GlobalVariableDefs.obj (DevEmuRegsFile)

FlashRegsFile 
*          1    00000a80    00000008     UNINITIALIZED
                  00000a80    00000008     DSP2833x_GlobalVariableDefs.obj (FlashRegsFile)

CsmRegsFile 
*          1    00000ae0    00000010     UNINITIALIZED
                  00000ae0    00000010     DSP2833x_GlobalVariableDefs.obj (CsmRegsFile)

AdcMirrorFile 
*          1    00000b00    00000010     UNINITIALIZED
                  00000b00    00000010     DSP2833x_GlobalVariableDefs.obj (AdcMirrorFile)

XintfRegsFile 
*          1    00000b20    0000001e     UNINITIALIZED
                  00000b20    0000001e     DSP2833x_GlobalVariableDefs.obj (XintfRegsFile)

CpuTimer0RegsFile 
*          1    00000c00    00000008     UNINITIALIZED
                  00000c00    00000008     DSP2833x_GlobalVariableDefs.obj (CpuTimer0RegsFile)

CpuTimer1RegsFile 
*          1    00000c08    00000008     UNINITIALIZED
                  00000c08    00000008     DSP2833x_GlobalVariableDefs.obj (CpuTimer1RegsFile)

CpuTimer2RegsFile 
*          1    00000c10    00000008     UNINITIALIZED
                  00000c10    00000008     DSP2833x_GlobalVariableDefs.obj (CpuTimer2RegsFile)

PieCtrlRegsFile 
*          1    00000ce0    0000001a     UNINITIALIZED
                  00000ce0    0000001a     DSP2833x_GlobalVariableDefs.obj (PieCtrlRegsFile)

PieVectTableFile 
*          1    00000d00    00000100     UNINITIALIZED
                  00000d00    00000100     DSP2833x_GlobalVariableDefs.obj (PieVectTableFile)

DmaRegsFile 
*          1    00001000    000000e0     UNINITIALIZED
                  00001000    000000e0     DSP2833x_GlobalVariableDefs.obj (DmaRegsFile)

McbspaRegsFile 
*          1    00005000    00000025     UNINITIALIZED
                  00005000    00000025     DSP2833x_GlobalVariableDefs.obj (McbspaRegsFile)

McbspbRegsFile 
*          1    00005040    00000025     UNINITIALIZED
                  00005040    00000025     DSP2833x_GlobalVariableDefs.obj (McbspbRegsFile)

ECanaRegsFile 
*          1    00006000    00000034     UNINITIALIZED
                  00006000    00000034     DSP2833x_GlobalVariableDefs.obj (ECanaRegsFile)

ECanaLAMRegsFile 
*          1    00006040    00000040     UNINITIALIZED
                  00006040    00000040     DSP2833x_GlobalVariableDefs.obj (ECanaLAMRegsFile)

ECanaMOTSRegsFile 
*          1    00006080    00000040     UNINITIALIZED
                  00006080    00000040     DSP2833x_GlobalVariableDefs.obj (ECanaMOTSRegsFile)

ECanaMOTORegsFile 
*          1    000060c0    00000040     UNINITIALIZED
                  000060c0    00000040     DSP2833x_GlobalVariableDefs.obj (ECanaMOTORegsFile)

ECanaMboxesFile 
*          1    00006100    00000100     UNINITIALIZED
                  00006100    00000100     DSP2833x_GlobalVariableDefs.obj (ECanaMboxesFile)

ECanbRegsFile 
*          1    00006200    00000034     UNINITIALIZED
                  00006200    00000034     DSP2833x_GlobalVariableDefs.obj (ECanbRegsFile)

ECanbLAMRegsFile 
*          1    00006240    00000040     UNINITIALIZED
                  00006240    00000040     DSP2833x_GlobalVariableDefs.obj (ECanbLAMRegsFile)

ECanbMOTSRegsFile 
*          1    00006280    00000040     UNINITIALIZED
                  00006280    00000040     DSP2833x_GlobalVariableDefs.obj (ECanbMOTSRegsFile)

ECanbMOTORegsFile 
*          1    000062c0    00000040     UNINITIALIZED
                  000062c0    00000040     DSP2833x_GlobalVariableDefs.obj (ECanbMOTORegsFile)

ECanbMboxesFile 
*          1    00006300    00000100     UNINITIALIZED
                  00006300    00000100     DSP2833x_GlobalVariableDefs.obj (ECanbMboxesFile)

EPwm1RegsFile 
*          1    00006800    00000022     UNINITIALIZED
                  00006800    00000022     DSP2833x_GlobalVariableDefs.obj (EPwm1RegsFile)

EPwm2RegsFile 
*          1    00006840    00000022     UNINITIALIZED
                  00006840    00000022     DSP2833x_GlobalVariableDefs.obj (EPwm2RegsFile)

EPwm3RegsFile 
*          1    00006880    00000022     UNINITIALIZED
                  00006880    00000022     DSP2833x_GlobalVariableDefs.obj (EPwm3RegsFile)

EPwm4RegsFile 
*          1    000068c0    00000022     UNINITIALIZED
                  000068c0    00000022     DSP2833x_GlobalVariableDefs.obj (EPwm4RegsFile)

EPwm5RegsFile 
*          1    00006900    00000022     UNINITIALIZED
                  00006900    00000022     DSP2833x_GlobalVariableDefs.obj (EPwm5RegsFile)

EPwm6RegsFile 
*          1    00006940    00000022     UNINITIALIZED
                  00006940    00000022     DSP2833x_GlobalVariableDefs.obj (EPwm6RegsFile)

ECap1RegsFile 
*          1    00006a00    00000020     UNINITIALIZED
                  00006a00    00000020     DSP2833x_GlobalVariableDefs.obj (ECap1RegsFile)

ECap2RegsFile 
*          1    00006a20    00000020     UNINITIALIZED
                  00006a20    00000020     DSP2833x_GlobalVariableDefs.obj (ECap2RegsFile)

ECap3RegsFile 
*          1    00006a40    00000020     UNINITIALIZED
                  00006a40    00000020     DSP2833x_GlobalVariableDefs.obj (ECap3RegsFile)

ECap4RegsFile 
*          1    00006a60    00000020     UNINITIALIZED
                  00006a60    00000020     DSP2833x_GlobalVariableDefs.obj (ECap4RegsFile)

ECap5RegsFile 
*          1    00006a80    00000020     UNINITIALIZED
                  00006a80    00000020     DSP2833x_GlobalVariableDefs.obj (ECap5RegsFile)

ECap6RegsFile 
*          1    00006aa0    00000020     UNINITIALIZED
                  00006aa0    00000020     DSP2833x_GlobalVariableDefs.obj (ECap6RegsFile)

EQep1RegsFile 
*          1    00006b00    00000040     UNINITIALIZED
                  00006b00    00000040     DSP2833x_GlobalVariableDefs.obj (EQep1RegsFile)

EQep2RegsFile 
*          1    00006b40    00000040     UNINITIALIZED
                  00006b40    00000040     DSP2833x_GlobalVariableDefs.obj (EQep2RegsFile)

GpioCtrlRegsFile 
*          1    00006f80    0000002e     UNINITIALIZED
                  00006f80    0000002e     DSP2833x_GlobalVariableDefs.obj (GpioCtrlRegsFile)

GpioDataRegsFile 
*          1    00006fc0    00000020     UNINITIALIZED
                  00006fc0    00000020     DSP2833x_GlobalVariableDefs.obj (GpioDataRegsFile)

GpioIntRegsFile 
*          1    00006fe0    0000000a     UNINITIALIZED
                  00006fe0    0000000a     DSP2833x_GlobalVariableDefs.obj (GpioIntRegsFile)

SysCtrlRegsFile 
*          1    00007010    00000020     UNINITIALIZED
                  00007010    00000020     DSP2833x_GlobalVariableDefs.obj (SysCtrlRegsFile)

SpiaRegsFile 
*          1    00007040    00000010     UNINITIALIZED
                  00007040    00000010     DSP2833x_GlobalVariableDefs.obj (SpiaRegsFile)

SciaRegsFile 
*          1    00007050    00000010     UNINITIALIZED
                  00007050    00000010     DSP2833x_GlobalVariableDefs.obj (SciaRegsFile)

XIntruptRegsFile 
*          1    00007070    00000010     UNINITIALIZED
                  00007070    00000010     DSP2833x_GlobalVariableDefs.obj (XIntruptRegsFile)

AdcRegsFile 
*          1    00007100    0000001e     UNINITIALIZED
                  00007100    0000001e     DSP2833x_GlobalVariableDefs.obj (AdcRegsFile)

ScibRegsFile 
*          1    00007750    00000010     UNINITIALIZED
                  00007750    00000010     DSP2833x_GlobalVariableDefs.obj (ScibRegsFile)

ScicRegsFile 
*          1    00007770    00000010     UNINITIALIZED
                  00007770    00000010     DSP2833x_GlobalVariableDefs.obj (ScicRegsFile)

I2caRegsFile 
*          1    00007900    00000022     UNINITIALIZED
                  00007900    00000022     DSP2833x_GlobalVariableDefs.obj (I2caRegsFile)

DMARAML4   1    0000c000    00000000     UNINITIALIZED

.ebss      1    0000c000    000008eb     UNINITIALIZED
                  0000c000    00000808     main.obj (.ebss)
                  0000c808    00000018     DSP2833x_CpuTimers.obj (.ebss)
                  0000c820    00000008     rts2800_fpu32.lib : memory.obj (.ebss)
                  0000c828    00000006     SVM.obj (.ebss)
                  0000c82e    00000006     delta_trip_proc.obj (.ebss)
                  0000c834    00000004     rts2800_fpu32.lib : exit.obj (.ebss)
                  0000c838    00000004                       : _lock.obj (.ebss)
                  0000c83c    00000002     MonitorProc.obj (.ebss)
                  0000c83e    00000002     RefFunc.obj (.ebss)
                  0000c840    000000a4     scibv10.obj (.ebss)
                  0000c8e4    00000002     common_module.obj (.ebss)
                  0000c8e6    00000002     vf_contol.obj (.ebss)
                  0000c8e8    00000001     rts2800_fpu32.lib : errno.obj (.ebss)
                  0000c8e9    00000001     DSP2833x_GlobalVariableDefs.obj (.ebss)
                  0000c8ea    00000001     switching_irq.obj (.ebss)

DMARAML5   1    0000d000    00000000     UNINITIALIZED

DMARAML6   1    0000e000    00000000     UNINITIALIZED

DMARAML7   1    0000f000    00000000     UNINITIALIZED

CsmPwlFile 
*          1    0033fff8    00000008     UNINITIALIZED
                  0033fff8    00000008     DSP2833x_GlobalVariableDefs.obj (CsmPwlFile)


GLOBAL SYMBOLS: SORTED ALPHABETICALLY BY Name 

address    name
--------   ----
00000000   .bss
00000000   .data
00318000   .text
00320680   C$$EXIT
0031ff57   FD$$ADD
003204dd   FD$$CMP
00320086   FD$$DIV
0032021e   FD$$MPY
00320714   FD$$NEG
003206ea   FD$$SUB
00320596   FD$$TOI
003205d7   FD$$TOL
00320111   FS$$DIV
00320630   FS$$TOFD
00320531   I$$DIV
00320542   I$$MOD
003204b3   L$$DIV
003204c2   L$$MOD
00320614   L$$TOFD
003205f6   LL$$CMP
0031fb6e   LL$$DIV
0031fbaa   LL$$MOD
003206c4   LL$$MPY
003204d0   UL$$DIV
003204d7   UL$$MOD
00320608   ULL$$CMP
0031fbe4   ULL$$DIV
0031fc13   ULL$$MOD
0031e540   _ADCINT_ISR
00380080   _ADC_cal
0000c12a   _AT_DeadTimeGain
0000c134   _AT_Freq_Leq_Req
0000c142   _AT_Freq_Ls
0000c128   _AT_Is_Coeff_Leq_Req
0000c126   _AT_Is_Coeff_Rs
0000c146   _AT_Ls_DMB_OpenTime
0000c12e   _AT_Ls_Vs_RAMP
0000c14a   _AT_Te_Coeff_Jm
0000c13a   _AT_Time_Jm
0000c144   _AT_Time_Leq_Req
0000c148   _AT_Time_Ls
0000c12c   _AT_Time_Rs
00000b00   _AdcMirror
00007100   _AdcRegs
0031edb6   _Adc_Isr
0000c080   _AnaCmdReference
0000c02e   _AutoTuningFlag
0000c198   _Base_Flux_Coeff
0031c39b   _COMMON_SL_VECT_CNTL_ParameterVerification
0031c085   _COMMON_VECT_CNTL_ParameterVerification
0000c04b   _CON_PWM_Flag
0000c0e4   _C_ce
0000c0e6   _C_ce_nF
0031ce10   _CheckIGBTFault
0031ce56   _CheckOverHeat
0031cddd   _CheckOverSpeed
0031cd7d   _CheckOverVolt
0031d77f   _CheckSum
0031d781   _CheckSum_bk
0031cdac   _CheckUndeVolt
0031d151   _ClearTripDataToEeprom
0032003f   _ConfigCpuTimer
0000c096   _CosDeltaTheta
0000c3e8   _CosTheta
0000c084   _CosTheta1
0000c28a   _Cos_theta
0000c818   _CpuTimer0
00000c00   _CpuTimer0Regs
0000c808   _CpuTimer1
00000c08   _CpuTimer1Regs
0000c810   _CpuTimer2
00000c10   _CpuTimer2Regs
0033fff8   _CsmPwl
00000ae0   _CsmRegs
0031f48c   _CsmUnlock
0000c2b4   _Current_Input_R
0000c2b2   _Current_Input_S
0000c2b8   _Current_Input_T
0000c2b6   _Current_Output_R
0000c2ac   _Current_Output_S
0000c2aa   _Current_Output_T
0031e46e   _DATALOG_ISR
0000c268   _DC_LINK_N
0000c26a   _DC_LINK_P
0000c04c   _DC_fault_cnt
0000c510   _DF_Uan
0000c51a   _DF_Ubn
0000c524   _DF_Ucn
0031e662   _DINTCH1_ISR
0031e66c   _DINTCH2_ISR
0031e676   _DINTCH3_ISR
0031e680   _DINTCH4_ISR
0031e68a   _DINTCH5_ISR
0031e694   _DINTCH6_ISR
0031f869   _DS1307ReadData
0031f840   _DS1307WriteData
00008023   _DSP28x_usDelay
0000c172   _Data_Backup
0000c18e   _Data_Check
0000c176   _Data_Init
0000c170   _Data_Load
0000c828   _Dd
0000c0a4   _DecRef
0000c1ba   _Default_wr_FilterPole
0000c0c6   _DeltaLambda
0000c090   _DeltaTheta
0000c0c2   _Delta_wr
0000c180   _Delta_wr_FilterPoleCoeff_L
0000c17e   _Delta_wr_FilterPoleCoeff_U
0000c088   _Delta_wr_Filter_Pole
00000880   _DevEmuRegs
0031f381   _DisableDog
00001000   _DmaRegs
0000c438   _DutyCount
0000c4d8   _DutyRatio
0031e6ee   _ECAN0INTA_ISR
0031e702   _ECAN0INTB_ISR
0031e6f8   _ECAN1INTA_ISR
0031e70c   _ECAN1INTB_ISR
0031e5d6   _ECAP1_INT_ISR
0031e5e0   _ECAP2_INT_ISR
0031e5ea   _ECAP3_INT_ISR
0031e5f4   _ECAP4_INT_ISR
0031e5fe   _ECAP5_INT_ISR
0031e608   _ECAP6_INT_ISR
00006040   _ECanaLAMRegs
000060c0   _ECanaMOTORegs
00006080   _ECanaMOTSRegs
00006100   _ECanaMboxes
00006000   _ECanaRegs
00006240   _ECanbLAMRegs
000062c0   _ECanbMOTORegs
00006280   _ECanbMOTSRegs
00006300   _ECanbMboxes
00006200   _ECanbRegs
00006a00   _ECap1Regs
00006a20   _ECap2Regs
00006a40   _ECap3Regs
00006a60   _ECap4Regs
00006a80   _ECap5Regs
00006aa0   _ECap6Regs
0031e482   _EMUINT_ISR
0031e59a   _EPWM1_INT_ISR
0031e55e   _EPWM1_TZINT_ISR
0031e5a4   _EPWM2_INT_ISR
0031e568   _EPWM2_TZINT_ISR
0031e5ae   _EPWM3_INT_ISR
0031e572   _EPWM3_TZINT_ISR
0031e5b8   _EPWM4_INT_ISR
0031e57c   _EPWM4_TZINT_ISR
0031e5c2   _EPWM5_INT_ISR
0031e586   _EPWM5_TZINT_ISR
0031e5cc   _EPWM6_INT_ISR
0031e590   _EPWM6_TZINT_ISR
00006800   _EPwm1Regs
00006840   _EPwm2Regs
00006880   _EPwm3Regs
000068c0   _EPwm4Regs
00006900   _EPwm5Regs
00006940   _EPwm6Regs
0031feb6   _EPwm_All_Disable
0031fe6a   _EPwm_ISC_Enable
0031fe8a   _EPwm_OSC_Enable
0031e612   _EQEP1_INT_ISR
0031e61c   _EQEP2_INT_ISR
00006b00   _EQep1Regs
00006b40   _EQep2Regs
0000c032   _EepromSaveFlag
00320526   _EnableInterrupts
0000c196   _ExcitationTime
0000c1b4   _FW_VoltageCoeff
0000c04d   _Fault_Code
0000c03c   _Flag_TripDataBackup
00000a80   _FlashRegs
0000c0b0   _Fr
0000c0b2   _Fr_Err
0000c0cc   _Fr_ErrInt
0000c09c   _Fr_rat
0000c0bc   _Fr_ref
0000c0ae   _Fr_ref0
0000c3dc   _Freq_out
0000c182   _Freq_rat
0000c112   _Freq_ref
0000c378   _Freq_set
0000c110   _Freq_slip
0000c058   _Freq_slip_rat
0000c0b6   _Fs
0000c0ba   _Fs1
0000c05e   _Fs_B
0000c4a4   _Fs_dq
0000c098   _Fs_rat
0000c3f2   _Fs_ref
0000c3c4   _Fs_ref0
0000c19a   _GM_Fr
0000c1b8   _GM_Is
0000c174   _GainUpdateTimer
0000c1a8   _GammaLambda
0000c1ae   _GammaLambda_R_Constant
0000c1b0   _GammaTheta_M
0000c17c   _GammaTheta_R
00320404   _GetInputMark
0031f895   _GetTimeAndDateStr
0031cfa0   _GetTripInfo
00006f80   _GpioCtrlRegs
00006fc0   _GpioDataRegs
00006fe0   _GpioIntRegs
0031bed1   _HardwareParameterVerification
0031e130   _I2CA_Init
0031e19f   _I2CA_ReadData
0031e142   _I2CA_WriteData
0031e69e   _I2CINT1A_ISR
0031e6a8   _I2CINT2A_ISR
00007900   _I2caRegs
0031e496   _ILLEGAL_ISR
0031e45a   _INT13_ISR
0031e464   _INT14_ISR
0000c04a   _INV_PWM_Flag
0000c051   _INV_STEP_CNT
0000c0c4   _I_DS0
0000c0c0   _I_DS0_0
0000c0c8   _I_DS_err
0000c066   _I_QS_rat
0000c14e   _I_sense_value
0000c382   _Im_Power
0000c049   _InOCFlag
0000c08a   _IncRef
0000c08c   _IncScanRef
0031ed51   _InitAdc
0031fff3   _InitCpuTimers
0031d43f   _InitEPwm_ACIM_Inverter
00008000   _InitFlash
0031dda3   _InitGpio
0031f3dc   _InitPeripheralClocks
00320507   _InitPieCtrl
00320553   _InitPieVectTable
0031f389   _InitPll
0031f36e   _InitSysCtrl
0031d5f8   _InitWatchDog
0031e09c   _InitXintf
0000c026   _Init_RiseUp_Flag
0000c468   _Is_DQ
0000c488   _Is_DQ_ErrInt
0000c470   _Is_DQ_max
0000c46c   _Is_DQ_ref
0000c184   _Is_Leq_Req
0000c23c   _Is_Max_Coeff
0000c10e   _Is_R
0000c10c   _Is_S
0000c0fe   _Is_T
0000c4f0   _Is_abc
0000c4a0   _Is_dq
0000c464   _Is_dq_ErrInt
0000c460   _Is_dq_ref
0000c37e   _Is_mag
0000c3ac   _Is_mag_rms
0000c3da   _Is_max
0000c386   _Is_rat
0000c16a   _Jm
0000c00a   _Jm_ID_ENABLE
0000c500   _Jm_ID_Te
0000c4f6   _Jm_ID_t
0000c508   _Jm_ID_wr
0000c474   _Jm_SampleData
0000c19c   _K_Damp_Fr
0000c1b2   _K_Damp_Is
0000c1a6   _K_Damp_wr
0000c1c8   _K_damp_hyd_press
0000c07e   _Ki_Is
0000c1f8   _Ki_hyd_press
0000c064   _Ki_wr
0000c06c   _Kp_Is
0000c082   _Kp_Is_Coeff
0000c1fc   _Kp_hyd_press
0000c062   _Kp_wr
0000c0a0   _Kt
0031eab3   _LPF1
0000c490   _LPF_Active
0000c47c   _LPF_Current_Input_R
0000c440   _LPF_Current_Input_S
0000c43c   _LPF_Current_Input_T
0000c478   _LPF_Current_Output_R
0000c480   _LPF_Current_Output_S
0000c484   _LPF_Current_Output_T
0000c4c0   _LPF_DCLINK_voltage
0000c432   _LPF_Ia_feed
0000c436   _LPF_Ia_in
0000c426   _LPF_Ia_out
0000c430   _LPF_Ib_feed
0000c42e   _LPF_Ib_in
0000c434   _LPF_Ib_out
0000c18c   _LPF_Is
0000c192   _LPF_Is_Square
0000c194   _LPF_Re_Power
0000c4ac   _LPF_Reactive
0000c4c8   _LPF_SOC
0000c11e   _LPF_Te
0000c494   _LPF_Ude_pll
0000c498   _LPF_Uqe_pll
0000c48c   _LPF_Urmsp
0000c398   _LPF_Vdc_feed
0000c392   _LPF_Vdc_in
0000c394   _LPF_Vdc_out
0000c4b8   _LPF_Voltage_Input_RS
0000c4bc   _LPF_Voltage_Input_ST
0000c4b0   _LPF_Voltage_Output_R
0000c4b4   _LPF_Voltage_Output_S
0000c4d4   _LPF_Voltage_Output_T
0000c190   _LPF_Vs_Square
0000c4a8   _LPF_del_freq
0000c458   _LPF_fIn_Ide_axis
0000c45c   _LPF_fIn_Iqe_axis
0031e752   _LUF_ISR
0031e748   _LVF_ISR
0000c06a   _Leq
0000c15a   _Lm
0000c0f0   _Lm_div_Lr
0000c15c   _Lr
0000c0ee   _Lr_div_Lm
0000c156   _Ls
0031e64e   _MRINTA_ISR
0031e63a   _MRINTB_ISR
0031e658   _MXINTA_ISR
0031e644   _MXINTB_ISR
0031f9a3   _MainPWM
0000c1ac   _Max_DeltaLambda
0000c17a   _Max_DeltaTheta
0000c122   _Max_Trq_Coeff
0000c1a0   _Max_wn_wr
00005000   _McbspaRegs
00005040   _McbspbRegs
00320698   _MemCopy
0000c580   _MonitorMsg
0031f958   _MotorControlProc
0031e48c   _NMI_ISR
0031ead2   _Nop
0000c2fe   _Out_alpha_cur
0000c2fc   _Out_beta_cur
0000c2f0   _Out_fIn_Ide_axis
0000c2f6   _Out_fIn_Iqe_axis
0000c076   _OverCurLimit
0031e75c   _PIE_RESERVED
0031ead5   _PI_Damp_Controller
0000c19e   _PM_Fr
0000c1b6   _PM_Is
0000c348   _P_out
0000c108   _P_pair
0000c8e9   _PartIdRegs
0000c0d2   _Pf
00000ce0   _PieCtrlRegs
00000d00   _PieVectTable
00339400   _PieVectTableInit
0031eb3c   _PowerOnReset
0000c118   _Power_core
0000c116   _Power_core_rat
0000c0e0   _Power_gap
0000c272   _RMS_Iin
0000c2f2   _RMS_Iout
0000c362   _RMS_Vout
0031e478   _RTOSINT_ISR
0000c16e   _R_phase_I_sense_span
00320753   _RamfuncsLoadEnd
0032072c   _RamfuncsLoadStart
00008000   _RamfuncsRunStart
0000c384   _Re_Power
0031d0ba   _ReadTripString
0031fc75   _RefFunc
0000c068   _Req
0000c158   _Rr
0000c220   _Rs
0031e6c6   _SCIRXINTA_ISR
0031e6da   _SCIRXINTB_ISR
0031e6b2   _SCIRXINTC_ISR
0031e6d0   _SCITXINTA_ISR
0031e6e4   _SCITXINTB_ISR
0031e6bc   _SCITXINTC_ISR
0031e518   _SEQ1INT_ISR
0031e522   _SEQ2INT_ISR
0031c506   _SL_SPEED_CNTL_Parameter
0031b5b7   _SL_SpeedCntl_SFRF
0031c4f7   _SL_TORQUE_CNTL_Parameter
0031b681   _SL_TorqueCntl_SFRF
0031b6b2   _SL_VectCntl_SFRF
0000c298   _SOCCoeff1
0000c29e   _SOCCoeff2
0031e626   _SPIRXINTA_ISR
0031e630   _SPITXINTA_ISR
0000c2d2   _SUM_DC_LINK
0000c056   _S_lin
0000c16c   _S_phase_I_sense_span
0000c05c   _S_rat
0031d7b8   _SaveDataProc
0031d0de   _SaveTripDataToEeprom
00007050   _SciaRegs
00007750   _ScibRegs
00007770   _ScicRegs
0031f377   _ServiceDog
0031eb3b   _SetSensorOffset
0000c08e   _SinCosDeltaTheta
0000c094   _SinDeltaTheta
0000c3e2   _SinTheta
0000c086   _SinTheta1
0000c28c   _Sin_theta
0000c114   _Slip
0000c0dc   _SlipCoeff
0000c1aa   _SlipCompCoeff
0031d9de   _SpaceVectorModulation
00007040   _SpiaRegs
00007010   _SysCtrlRegs
0000c258   _SysWe
0031e54a   _TINT0_ISR
0000c82a   _T_d
0000c11a   _Te
0000c102   _Te_max
0000c0a8   _Te_rat
0000c11c   _Te_ref
0000c848   _TimeInput
0000c0f8   _Tr
0000c6c0   _TripInfo
0000c640   _TripInfoNow
0031ce95   _TripProc
0000c368   _Ts
0031e4fa   _USER10_ISR
0031e504   _USER11_ISR
0031e50e   _USER12_ISR
0031e4a0   _USER1_ISR
0031e4aa   _USER2_ISR
0031e4b4   _USER3_ISR
0031e4be   _USER4_ISR
0031e4c8   _USER5_ISR
0031e4d2   _USER6_ISR
0031e4dc   _USER7_ISR
0031e4e6   _USER8_ISR
0031e4f0   _USER9_ISR
0000c412   _Uan
0000c41e   _Uan_alpha
0000c420   _Uan_beta
0000c34e   _Uan_out
0000c40c   _Uanpu
0000c414   _Ubn
0000c41c   _Ubn_alpha
0000c418   _Ubn_beta
0000c34c   _Ubn_out
0000c40e   _Ubnpu
0000c410   _Ucn
0000c41a   _Ucn_alpha
0000c3fe   _Ucn_beta
0000c352   _Ucn_out
0000c422   _Ucnpu
0000c254   _Ude_Limit
0000c25a   _Ude_err
0000c260   _Ude_integ
0000c25e   _Ude_integ_pre
0000c2da   _Ude_pll
0000c2d6   _Up_alpha
0000c2d4   _Up_beta
0000c2c0   _Upa
0000c2be   _Upb
0000c2ca   _Upc
0000c2d8   _Uqe_pll
0000c25c   _Ureal_rms
0000c444   _Us_dq
0000c29c   _VDCCoeff1
0000c2a8   _VDCCoeff2
0000c1a2   _VF_DeadTimeGain
0000c160   _VF_ExcitationTime
0000c164   _VF_Freq_TrqBoost
0000c15e   _VF_Fs_Coeff
0000c132   _VF_IR_Comp_FilterPole
0000c136   _VF_Rs
0000c166   _VF_Rs_ThermalCoeff
0000c130   _VF_Slip_Comp_FilterPole
0000c162   _VF_Vs_Coeff_TrqBoost
0031e770   _VariInit
0000c3d8   _Vdc
0000c39c   _Vdc_calc_offset
0000c39e   _Vdc_factor
0000c18a   _Vdc_fnd_data
0000c3c0   _Vo
0031dc71   _VoltageEstimation
0000c2ce   _Voltage_Input_RS
0000c2cc   _Voltage_Input_ST
0000c2ae   _Voltage_Output_R
0000c2f4   _Voltage_Output_RS
0000c2dc   _Voltage_Output_S
0000c320   _Voltage_Output_ST
0000c416   _Voltage_Output_T
0000c178   _Vs_Coeff_Leq_Req
0000c44c   _Vs_DQ
0000c4d0   _Vs_DQ_comp
0000c450   _Vs_DQ_max
0000c4cc   _Vs_DQ_ref
0000c4c4   _Vs_DQ_ref_P
0000c49c   _Vs_DQ_ref_PI
0000c0de   _Vs_IR_comp
0000c0fc   _Vs_R
0000c3a0   _Vs_R_calc_offset
0000c3a2   _Vs_R_factor
0000c100   _Vs_S
0000c370   _Vs_S_calc_offset
0000c372   _Vs_S_factor
0000c104   _Vs_T
0000c374   _Vs_T_calc_offset
0000c376   _Vs_T_factor
0000c4de   _Vs_abc
0000c4e4   _Vs_abc_ref
0000c448   _Vs_dq
0000c454   _Vs_dq_ref
0000c3de   _Vs_max
0000c3c6   _Vs_max_FW
0000c388   _Vs_rat
0000c120   _Vs_ref
0031e554   _WAKEINT_ISR
0031f906   _WriteTimeToDS1307
0031d085   _WriteTripString
0031e52c   _XINT1_ISR
0031e536   _XINT2_ISR
0031e716   _XINT3_ISR
0031e720   _XINT4_ISR
0031e72a   _XINT5_ISR
0031e734   _XINT6_ISR
0031e73e   _XINT7_ISR
00007070   _XIntruptRegs
00000b20   _XintfRegs
00004000   _ZONE0_BUF
00100000   _ZONE6_BUF
00200000   _ZONE7_BUF
00000300   __STACK_SIZE
00000300   __SYSMEM_SIZE
ffffffff   ___TI_pprof_out_hndl
ffffffff   ___TI_prof_var_size
ffffffff   ___TI_prof_var_start
ffffffff   ___binit__
00000000   ___bss__
ffffffff   ___c_args__
003398ef   ___cinit__
00000000   ___data__
00000000   ___edata__
00000000   ___end__
0032072c   ___etext__
00320575   ___memcpy_ff
ffffffff   ___pinit__
00318000   ___text__
003206af   __args_main
0000c834   __cleanup_ptr
003397ee   __ctypes_
0000c836   __dtors_ptr
0000c83a   __lock
0032070a   __nop
0031b4b1   __printfi
00320706   __register_lock
00320702   __register_unlock
00000400   __stack
00000050   __sys_memory
0000c838   __unlock
0000c296   _a0
0000c2c4   _a1
0000c2c2   _a2
00320680   _abort
0000c1ee   _accel_time1
0000c1f2   _accel_time2
0000c02a   _adc_R_offset
0000c02c   _adc_S_offset
0000c540   _adc_result
0000c01d   _adc_u_offset
0000c02b   _adc_v_offset
0000c26e   _alpha_cur
0000c1ca   _analog_cmd_in_span1
0000c1be   _analog_cmd_in_span2
0000c1cc   _analog_cmd_in_zero1
0000c1da   _analog_cmd_in_zero2
0031eb8c   _analog_cmd_proc
0000c396   _analog_ref_a
0000c38c   _analog_ref_b
00320454   _atoi
0000c2c8   _b0
0000c2c6   _b1
0000c2bc   _b2
0031d72e   _backup_data_load
0000c26c   _beta_cur
0000c200   _btn_start_ref
0032040e   _c_int00
0031f171   _calloc
0031d6ad   _check_backup_data
0031e392   _check_code_data
0031ccc9   _chk_invt_OC
0031f16f   _chkheap
0000c01f   _cmdtest
0000c138   _code_Ki_Is_Coeff
0000c13e   _code_Kp_Is_Coeff
0000c20e   _code_LPF_cutoff_hz_I
0000c222   _code_LPF_cutoff_hz_V
0000c234   _code_Vdc_calc_high
0000c230   _code_Vdc_calc_low
0000c22e   _code_Vdc_offseter
0000c24a   _code_Vdc_scaler
0000c23e   _code_Vs_R_calc_high
0000c240   _code_Vs_R_calc_low
0000c24e   _code_Vs_R_offseter
0000c248   _code_Vs_R_scaler
0000c216   _code_Vs_S_calc_high
0000c210   _code_Vs_S_calc_low
0000c242   _code_Vs_S_offseter
0000c244   _code_Vs_S_scaler
0000c20a   _code_Vs_T_calc_high
0000c20c   _code_Vs_T_calc_low
0000c224   _code_Vs_T_offseter
0000c214   _code_Vs_T_scaler
0000c250   _code_adc_Vs_R_high
0000c24c   _code_adc_Vs_R_low
0000c212   _code_adc_Vs_S_high
0000c246   _code_adc_Vs_S_low
0000c206   _code_adc_Vs_T_high
0000c208   _code_adc_Vs_T_low
0000c232   _code_adc_vdc_high
0000c22c   _code_adc_vdc_low
0000c1c2   _code_dac_offset_ch1
0000c1c4   _code_dac_offset_ch2
0000c1de   _code_dac_offset_ch3
0000c1e0   _code_dac_offset_ch4
0000c1bc   _code_dac_scale_ch1
0000c1c0   _code_dac_scale_ch2
0000c1d8   _code_dac_scale_ch3
0000c1dc   _code_dac_scale_ch4
0000c004   _code_dac_select_ch1
0000c008   _code_dac_select_ch2
0000c006   _code_dac_select_ch3
0000c028   _code_dac_select_ch4
0000c600   _code_inform
0000c044   _code_protect_CONV_adc_off
0000c042   _code_protect_IGBT2_off
0000c048   _code_protect_IGBT_off
0000c045   _code_protect_Iadc_off
0000c041   _code_protect_ex_trip_off
0000c035   _code_protect_inhibit_on
0000c047   _code_protect_ov_off
0000c046   _code_protect_over_I_off
0000c034   _code_protect_uv_off
0000c1e6   _code_speed2
0000c1ea   _code_speed3
0000c1fe   _code_speed4
0000c204   _code_speed5
003202a1   _cos
00320199   _cpu_timer0_isr
0031fd7c   _dac8412_out
0000c38a   _dac_ch0_unit_count_value
0000c390   _dac_ch1_unit_count_value
0000c38e   _dac_ch2_unit_count_value
0000c39a   _dac_ch3_unit_count_value
0000c740   _dac_point
0031e325   _data_over_proc
0031e2e1   _data_under_proc
0000c025   _debug1
0000c1ec   _decel_time1
0000c1f0   _decel_time2
0000c0e2   _del_Vs_comp
0031eb58   _delay_msecs
0000c82c   _delta_Tc
0031f756   _digital_input_proc
0031f7f4   _digital_out_proc
0031f793   _digital_port_check
0000c1e8   _digital_speed2
0000c01e   _disp_fnd_mode
0000c2ba   _div_a0
0031f729   _driver_enable_proc
0000c014   _e_stop
0000c1d6   _e_thermal_level
0000c8e8   _errno
0031921c   _estim_Jm_loop
00318a3c   _estim_Jm_pwm
00318e9e   _estim_Ls_loop
0031842b   _estim_Ls_pwm
00318020   _estim_ReqLeq_pwm
00318dfc   _estim_Rs_loop
0031833e   _estim_Rs_pwm
00318bba   _estim_req_leq_loop
00320682   _exit
0000c264   _fIn_DC_Voltage_err
0000c404   _fIn_DC_Voltage_integ
0000c400   _fIn_DC_Voltage_integ_pre
0000c402   _fIn_DC_Voltage_out
0000c406   _fIn_DC_Voltage_ref
0000c408   _fIn_DC_Voltage_ref_cmd
0000c2b0   _fIn_Ib
0000c2ea   _fIn_Ide_Ffest
0000c270   _fIn_Ide_axis
0000c314   _fIn_Ide_axis_ref
0000c2ec   _fIn_Ide_err
0000c3fc   _fIn_Ide_integ
0000c3f8   _fIn_Ide_integ_pre
0000c2de   _fIn_Ide_out
0000c2e0   _fIn_Iqe_Ffest
0000c266   _fIn_Iqe_axis
0000c2e8   _fIn_Iqe_axis_ref
0000c2e6   _fIn_Iqe_err
0000c3f6   _fIn_Iqe_integ
0000c40a   _fIn_Iqe_integ_pre
0000c2e4   _fIn_Iqe_out
0000c017   _fIn_Ir_fault_cnt
0000c050   _fIn_Is_fault_cnt
0000c040   _fIn_It_fault_cnt
0000c28e   _fIn_PHASE_CMPR
0000c294   _fIn_PHASE_CMPS
0000c292   _fIn_PHASE_CMPT
0000c278   _fIn_PWM_R
0000c284   _fIn_PWM_S
0000c290   _fIn_PWM_T
0000c33a   _fIn_Va_ref
0000c338   _fIn_Vb_ref
0000c366   _fIn_Vc_ref
0000c3fa   _fIn_Vde_axis
0000c336   _fIn_Vds_axis
0000c3f4   _fIn_Vqe_axis
0000c334   _fIn_Vqs_axis
0000c282   _fIn_a
0000c276   _fIn_cmpr1
0000c274   _fIn_cmpr2
0000c27a   _fIn_cmpr3
0000c27e   _fIn_max
0000c27c   _fIn_min
0000c2fa   _fOut_Cos_theta
0000c03f   _fOut_Is_fault_cnt
0000c04e   _fOut_It_fault_cnt
0000c30c   _fOut_PHASE_CMPR
0000c30a   _fOut_PHASE_CMPS
0000c302   _fOut_PHASE_CMPT
0000c310   _fOut_PWM_R
0000c316   _fOut_PWM_S
0000c308   _fOut_PWM_T
0000c2f8   _fOut_Sin_theta
0000c2e2   _fOut_SysWe
0000c286   _fOut_Va_ref
0000c306   _fOut_Vb_ref
0000c304   _fOut_Vc_ref
0000c32c   _fOut_Vde_Ffest
0000c356   _fOut_Vde_Ki
0000c32e   _fOut_Vde_Kp
0000c344   _fOut_Vde_axis
0000c330   _fOut_Vde_axis_out
0000c32a   _fOut_Vde_axis_ref
0000c35e   _fOut_Vde_err
0000c358   _fOut_Vde_integ
0000c35c   _fOut_Vde_integ_pre
0000c35a   _fOut_Vde_limit
0000c324   _fOut_Vde_ref_out
0000c350   _fOut_Vds_axis
0000c288   _fOut_Vds_axis_out
0000c33e   _fOut_Vqe_Ffest
0000c328   _fOut_Vqe_Ki
0000c342   _fOut_Vqe_Kp
0000c34a   _fOut_Vqe_axis
0000c360   _fOut_Vqe_axis_cmd
0000c33c   _fOut_Vqe_axis_out
0000c354   _fOut_Vqe_axis_ref
0000c364   _fOut_Vqe_err
0000c322   _fOut_Vqe_integ
0000c326   _fOut_Vqe_integ_pre
0000c332   _fOut_Vqe_limit
0000c340   _fOut_Vqe_ref_out
0000c346   _fOut_Vqs_axis
0000c300   _fOut_Vqs_axis_out
0000c318   _fOut_a
0000c31e   _fOut_cmpr1
0000c31c   _fOut_cmpr2
0000c312   _fOut_cmpr3
0000c30e   _fOut_max
0000c31a   _fOut_min
0000c2ee   _fOut_theta_pll
0000c2d0   _fSysAbcLpfCoeff1
0000c2a2   _fSysAbcLpfCoeff2
0000c2a0   _fSysDqeLpfCoeff1
0000c2a6   _fSysDqeLpfCoeff2
0000c2a4   _fSysFreqCoeff1
0000c29a   _fSysFreqCoeff2
0031f723   _fault_reset
0031ef98   _free
0031f151   _free_memory
0000c3ee   _frequency
0000c072   _func_flag
0000c003   _gAutoTuningSelect
0000c002   _gControlMode
0000c001   _gDeChargeFlag
0000c005   _gMachineState
0000c016   _gPWMTripCode
0000c031   _gRunFlag
0000c027   _gSciInFlag
0000c550   _gSciaRxBuf
0000c561   _gSciaTxBuf
0000c00b   _gSciaTxEndFlag
0000c029   _gSciaTxInPoint
0000c009   _gSciaTxOutPoint
0000c02d   _gStartInitFinish
0000c5c0   _gStr1
0000c52e   _gStr2
0000c037   _gTripFlag
0000c033   _gTripSaveFlag
0000c015   _gTripSavePoint
0000c070   _gdouSciCmdData
0031ebf2   _get_adc_offset
0031ecf5   _get_adc_vdc_high
0031ec99   _get_adc_vdc_low
003196b6   _get_code_group0
00319998   _get_code_group1
00319af8   _get_code_group2
00319ce5   _get_code_group3
0031a161   _get_code_group4
0031a34f   _get_code_group5
0031a51e   _get_code_group6
0031a853   _get_code_group7
0031abc4   _get_code_group8
0031d616   _get_code_information
0031eb9d   _get_command
0031e208   _get_eprom_address
0000c36c   _gfRunTime
0000c01c   _giAdcAI_I1
0000c018   _giAdcAI_I2
0000c01a   _giAdcAI_V1
0000c019   _giAdcAI_V2
0000c011   _giAdcAnaCmd
0000c00e   _giAdcRphase
0000c010   _giAdcSphase
0000c022   _giAdcTemp
0000c00d   _giAdcUphase
0000c00f   _giAdcVdc
0000c00c   _giAdcVphase
0000c000   _giSciCmdAddr
0000c007   _giSciCmdFunction
0000c030   _guiEpwmPeriodCount
0000c074   _gulStartCount
0000c1fa   _hyd_decel_time
0000c1f6   _hyd_idle_ref
0000c1c6   _hyd_integal_limit
0000c1f4   _hyd_max_ref
0000c238   _hyd_press_ctrl_band
0000c202   _hyd_press_ref
0031eb7f   _iGetAinCmd
0000c168   _igbt_pwm_freq
0000c024   _init_charge_flag
0031d964   _init_eprom_data
0031f744   _input_acc_dec_byp_proc
0031f73b   _input_acel_decel_switch_proc
0031f72f   _input_ai_local_remote_proc
0031f72c   _input_ai_ref_active_proc
0031f747   _input_ext_fault_a_proc
0031f732   _input_ext_fault_b_proc
0031f738   _input_mb_brake_state_proc
0031f735   _input_motor_select_proc
0031f741   _input_ref_tunning_dec_proc
0031f73e   _input_ref_tunning_inc_proc
0000c0d6   _inv_C_ce
0000c0b4   _inv_Fr
0000c0ac   _inv_Fr_ref
0000c188   _inv_Freq_rat
0000c0be   _inv_Fs
0000c060   _inv_Fs_B
0000c0b8   _inv_Fs_ref
0000c07c   _inv_GM_Is
0000c07a   _inv_GM_Is_square_minus_1
0000c05a   _inv_I_QS_rat
0000c37c   _inv_Is_rat
0000c09e   _inv_Kt
0000c0fa   _inv_Ls
0000c0e8   _inv_Ls_plus_sigma_Ls
0000c106   _inv_P_pair
0000c092   _inv_SinCosDeltaTheta
0000c09a   _inv_Te_rat
0000c0ea   _inv_Tr
0000c36e   _inv_Ts
0000c3a6   _inv_code_dac_scale_ch1
0000c3a4   _inv_code_dac_scale_ch2
0000c3aa   _inv_code_dac_scale_ch3
0000c3a8   _inv_code_dac_scale_ch4
0000c0a2   _inv_motor_rat_hz
0000c380   _inv_motor_rate_hz
0000c0f6   _inv_sigma_Ls
0000c0da   _inv_sigma_Tr
0031e369   _invalid_address_proc
0000c1e4   _jog_speed
0031ea78   _linear_eq
0031e3e1   _load_code2ram
0031c6e3   _load_scib_tx_mail_box
0031c6c0   _load_scib_tx_mail_box_char
00320485   _ltoa
0031d1c2   _main
0031f00c   _malloc
0031f12f   _max_free
003206d8   _memccpy
00320725   _memset
0000c1e2   _min_vf_ref
0031efe1   _minit
0032064c   _modf
003203cc   _monitor_proc
0000c03a   _motor_ctrl_mode
0000c038   _motor_direction_change
0000c21e   _motor_pole
0000c22a   _motor_rate_current
0000c21c   _motor_rate_effiency
0000c21a   _motor_rate_hz
0000c228   _motor_rate_power
0000c218   _motor_rate_rpm
0000c226   _motor_rate_volt
0000c23a   _over_I_time
0000c1d0   _over_current_level
0000c1d2   _over_speed_level
0000c1ce   _over_volt_set
0000c42c   _pCoeff_I1
0000c428   _pCoeff_I2
0000c42a   _pCoeff_V1
0000c424   _pCoeff_V2
0031956a   _parameter_estimation
0031eb6b   _periodic_check
0000c252   _pll_out
0000c236   _pre_charge_time
0000c3c2   _prev_I_QS
0000c021   _protect_reg
0000c03e   _ramp_func_mode
0031fd68   _ramp_proc
0031e29f   _read_eprom_data
0031f067   _realloc
0000c36a   _ref_time
0000c3d4   _reference0
0000c3e0   _reference1
0000c3d0   _reference_in
0000c3d6   _reference_out
0000c04f   _relay_flag
0000c3d2   _rpm
0000c10a   _rpm_Coeff
0000c3cc   _rpm_err
0000c3c8   _rpm_m
0000c3ce   _rpm_ref
0031e766   _rsvd_ISR
0000c039   _run_input_select
0031d6f7   _save_backup_data
0031c769   _scibRxFifoIsr
0031c70d   _scibTxFifoIsr
0031c7e8   _scib_cmd_proc
0031c653   _scib_fifo_init
0000c843   _scib_rx_end_addr
0000c866   _scib_rx_msg_box
0000c020   _scib_rx_msg_flag
0000c844   _scib_rx_start_addr
0000c840   _scib_tx_end_addr
0031c6aa   _scib_tx_msg
0000c880   _scib_tx_msg_box
0000c841   _scib_tx_start_addr
00320666   _serial_com_proc
0031d68d   _set_code_default_double
0031d672   _set_code_default_int
0031f5f5   _set_dac_point
0000c0d0   _sgn_I_QS
0000c4ea   _sgn_Is
0000c0d4   _sigma
0000c0d8   _sigma_Ls
0000c0ec   _sigma_Ls_div_1_plus_sigma
0000c0f4   _sigma_Tr
0000c0f2   _sigma_minus_1_div_sigma_Ls
00320302   _sin
00320361   _snprintf
00318000   _sqrt
0032070b   _strcpy
003206f8   _strlen
003205b7   _strncpy
0031f4bd   _strtod
0000c023   _terminal_input_state
0031fa65   _test_run
0000c3e4   _theta
0000c262   _theta60
0000c0ca   _theta_m
0000c256   _theta_pll
0000c186   _time_t
0000c01b   _timer0_count
0031ce74   _trip_check
0031cc97   _trip_recording
0000c012   _uConv_CtrlOn
0000c053   _uConv_LOW_DC_fault_cnt
0000c280   _uIn_Flag_OM
0000c052   _uInv_CtrlOn
0000c043   _uOut_Flag_OM
0000c14c   _u_phase_I_sense_span
0031eb54   _ulGetNow_mSec
0031eb3d   _ulGetTime_mSec
0000c1d4   _under_volt_set
0000c152   _v_phase_I_sense_span
0000c154   _vdc_sense_span
0000c150   _vdc_sense_zero
0031f2be   _vf_frequency_control
0031f18c   _vf_loop_control
0031f2c5   _vf_simple_control
0000c3b4   _w_sl
0000c3b2   _w_sl0
0031d5e4   _wakeint_isr
0000c3ea   _we
0000c3f0   _we0
0000c3be   _we_FW
0000c3ca   _we_FW1
0000c3ec   _we_in
0000c37a   _we_rat
0000c0aa   _wm_rat
0000c054   _wn_wr
0000c140   _wn_wr_Coeff
0000c124   _wp_Is
0000c078   _wp_Is_Coeff
0000c3b6   _wr
0000c013   _wr_CntlPeriodIndex
0000c0ce   _wr_Cycle
0000c036   _wr_CycleIndex
0000c1a4   _wr_DampingRatio
0000c3ae   _wr_ErrInt
0000c06e   _wr_FilterPole
0000c13c   _wr_FilterPoleCoeff
0000c03d   _wr_ctrl_index
0000c3b0   _wr_err
0000c3e6   _wr_m
0000c3b8   _wr_m0
0000c0a6   _wr_rat
0000c3bc   _wr_ref
0000c3ba   _wr_ref0
0031e26a   _write_code_2_eeprom
0000c02f   _xcon_data
ffffffff   binit
003398ef   cinit
0033fff6   code_start
00000000   edata
00000000   end
0032072c   etext
ffffffff   pinit


GLOBAL SYMBOLS: SORTED BY Symbol Address 

address    name
--------   ----
00000000   .bss
00000000   .data
00000000   ___bss__
00000000   ___data__
00000000   ___edata__
00000000   ___end__
00000000   edata
00000000   end
00000050   __sys_memory
00000300   __STACK_SIZE
00000300   __SYSMEM_SIZE
00000400   __stack
00000880   _DevEmuRegs
00000a80   _FlashRegs
00000ae0   _CsmRegs
00000b00   _AdcMirror
00000b20   _XintfRegs
00000c00   _CpuTimer0Regs
00000c08   _CpuTimer1Regs
00000c10   _CpuTimer2Regs
00000ce0   _PieCtrlRegs
00000d00   _PieVectTable
00001000   _DmaRegs
00004000   _ZONE0_BUF
00005000   _McbspaRegs
00005040   _McbspbRegs
00006000   _ECanaRegs
00006040   _ECanaLAMRegs
00006080   _ECanaMOTSRegs
000060c0   _ECanaMOTORegs
00006100   _ECanaMboxes
00006200   _ECanbRegs
00006240   _ECanbLAMRegs
00006280   _ECanbMOTSRegs
000062c0   _ECanbMOTORegs
00006300   _ECanbMboxes
00006800   _EPwm1Regs
00006840   _EPwm2Regs
00006880   _EPwm3Regs
000068c0   _EPwm4Regs
00006900   _EPwm5Regs
00006940   _EPwm6Regs
00006a00   _ECap1Regs
00006a20   _ECap2Regs
00006a40   _ECap3Regs
00006a60   _ECap4Regs
00006a80   _ECap5Regs
00006aa0   _ECap6Regs
00006b00   _EQep1Regs
00006b40   _EQep2Regs
00006f80   _GpioCtrlRegs
00006fc0   _GpioDataRegs
00006fe0   _GpioIntRegs
00007010   _SysCtrlRegs
00007040   _SpiaRegs
00007050   _SciaRegs
00007070   _XIntruptRegs
00007100   _AdcRegs
00007750   _ScibRegs
00007770   _ScicRegs
00007900   _I2caRegs
00008000   _InitFlash
00008000   _RamfuncsRunStart
00008023   _DSP28x_usDelay
0000c000   _giSciCmdAddr
0000c001   _gDeChargeFlag
0000c002   _gControlMode
0000c003   _gAutoTuningSelect
0000c004   _code_dac_select_ch1
0000c005   _gMachineState
0000c006   _code_dac_select_ch3
0000c007   _giSciCmdFunction
0000c008   _code_dac_select_ch2
0000c009   _gSciaTxOutPoint
0000c00a   _Jm_ID_ENABLE
0000c00b   _gSciaTxEndFlag
0000c00c   _giAdcVphase
0000c00d   _giAdcUphase
0000c00e   _giAdcRphase
0000c00f   _giAdcVdc
0000c010   _giAdcSphase
0000c011   _giAdcAnaCmd
0000c012   _uConv_CtrlOn
0000c013   _wr_CntlPeriodIndex
0000c014   _e_stop
0000c015   _gTripSavePoint
0000c016   _gPWMTripCode
0000c017   _fIn_Ir_fault_cnt
0000c018   _giAdcAI_I2
0000c019   _giAdcAI_V2
0000c01a   _giAdcAI_V1
0000c01b   _timer0_count
0000c01c   _giAdcAI_I1
0000c01d   _adc_u_offset
0000c01e   _disp_fnd_mode
0000c01f   _cmdtest
0000c020   _scib_rx_msg_flag
0000c021   _protect_reg
0000c022   _giAdcTemp
0000c023   _terminal_input_state
0000c024   _init_charge_flag
0000c025   _debug1
0000c026   _Init_RiseUp_Flag
0000c027   _gSciInFlag
0000c028   _code_dac_select_ch4
0000c029   _gSciaTxInPoint
0000c02a   _adc_R_offset
0000c02b   _adc_v_offset
0000c02c   _adc_S_offset
0000c02d   _gStartInitFinish
0000c02e   _AutoTuningFlag
0000c02f   _xcon_data
0000c030   _guiEpwmPeriodCount
0000c031   _gRunFlag
0000c032   _EepromSaveFlag
0000c033   _gTripSaveFlag
0000c034   _code_protect_uv_off
0000c035   _code_protect_inhibit_on
0000c036   _wr_CycleIndex
0000c037   _gTripFlag
0000c038   _motor_direction_change
0000c039   _run_input_select
0000c03a   _motor_ctrl_mode
0000c03c   _Flag_TripDataBackup
0000c03d   _wr_ctrl_index
0000c03e   _ramp_func_mode
0000c03f   _fOut_Is_fault_cnt
0000c040   _fIn_It_fault_cnt
0000c041   _code_protect_ex_trip_off
0000c042   _code_protect_IGBT2_off
0000c043   _uOut_Flag_OM
0000c044   _code_protect_CONV_adc_off
0000c045   _code_protect_Iadc_off
0000c046   _code_protect_over_I_off
0000c047   _code_protect_ov_off
0000c048   _code_protect_IGBT_off
0000c049   _InOCFlag
0000c04a   _INV_PWM_Flag
0000c04b   _CON_PWM_Flag
0000c04c   _DC_fault_cnt
0000c04d   _Fault_Code
0000c04e   _fOut_It_fault_cnt
0000c04f   _relay_flag
0000c050   _fIn_Is_fault_cnt
0000c051   _INV_STEP_CNT
0000c052   _uInv_CtrlOn
0000c053   _uConv_LOW_DC_fault_cnt
0000c054   _wn_wr
0000c056   _S_lin
0000c058   _Freq_slip_rat
0000c05a   _inv_I_QS_rat
0000c05c   _S_rat
0000c05e   _Fs_B
0000c060   _inv_Fs_B
0000c062   _Kp_wr
0000c064   _Ki_wr
0000c066   _I_QS_rat
0000c068   _Req
0000c06a   _Leq
0000c06c   _Kp_Is
0000c06e   _wr_FilterPole
0000c070   _gdouSciCmdData
0000c072   _func_flag
0000c074   _gulStartCount
0000c076   _OverCurLimit
0000c078   _wp_Is_Coeff
0000c07a   _inv_GM_Is_square_minus_1
0000c07c   _inv_GM_Is
0000c07e   _Ki_Is
0000c080   _AnaCmdReference
0000c082   _Kp_Is_Coeff
0000c084   _CosTheta1
0000c086   _SinTheta1
0000c088   _Delta_wr_Filter_Pole
0000c08a   _IncRef
0000c08c   _IncScanRef
0000c08e   _SinCosDeltaTheta
0000c090   _DeltaTheta
0000c092   _inv_SinCosDeltaTheta
0000c094   _SinDeltaTheta
0000c096   _CosDeltaTheta
0000c098   _Fs_rat
0000c09a   _inv_Te_rat
0000c09c   _Fr_rat
0000c09e   _inv_Kt
0000c0a0   _Kt
0000c0a2   _inv_motor_rat_hz
0000c0a4   _DecRef
0000c0a6   _wr_rat
0000c0a8   _Te_rat
0000c0aa   _wm_rat
0000c0ac   _inv_Fr_ref
0000c0ae   _Fr_ref0
0000c0b0   _Fr
0000c0b2   _Fr_Err
0000c0b4   _inv_Fr
0000c0b6   _Fs
0000c0b8   _inv_Fs_ref
0000c0ba   _Fs1
0000c0bc   _Fr_ref
0000c0be   _inv_Fs
0000c0c0   _I_DS0_0
0000c0c2   _Delta_wr
0000c0c4   _I_DS0
0000c0c6   _DeltaLambda
0000c0c8   _I_DS_err
0000c0ca   _theta_m
0000c0cc   _Fr_ErrInt
0000c0ce   _wr_Cycle
0000c0d0   _sgn_I_QS
0000c0d2   _Pf
0000c0d4   _sigma
0000c0d6   _inv_C_ce
0000c0d8   _sigma_Ls
0000c0da   _inv_sigma_Tr
0000c0dc   _SlipCoeff
0000c0de   _Vs_IR_comp
0000c0e0   _Power_gap
0000c0e2   _del_Vs_comp
0000c0e4   _C_ce
0000c0e6   _C_ce_nF
0000c0e8   _inv_Ls_plus_sigma_Ls
0000c0ea   _inv_Tr
0000c0ec   _sigma_Ls_div_1_plus_sigma
0000c0ee   _Lr_div_Lm
0000c0f0   _Lm_div_Lr
0000c0f2   _sigma_minus_1_div_sigma_Ls
0000c0f4   _sigma_Tr
0000c0f6   _inv_sigma_Ls
0000c0f8   _Tr
0000c0fa   _inv_Ls
0000c0fc   _Vs_R
0000c0fe   _Is_T
0000c100   _Vs_S
0000c102   _Te_max
0000c104   _Vs_T
0000c106   _inv_P_pair
0000c108   _P_pair
0000c10a   _rpm_Coeff
0000c10c   _Is_S
0000c10e   _Is_R
0000c110   _Freq_slip
0000c112   _Freq_ref
0000c114   _Slip
0000c116   _Power_core_rat
0000c118   _Power_core
0000c11a   _Te
0000c11c   _Te_ref
0000c11e   _LPF_Te
0000c120   _Vs_ref
0000c122   _Max_Trq_Coeff
0000c124   _wp_Is
0000c126   _AT_Is_Coeff_Rs
0000c128   _AT_Is_Coeff_Leq_Req
0000c12a   _AT_DeadTimeGain
0000c12c   _AT_Time_Rs
0000c12e   _AT_Ls_Vs_RAMP
0000c130   _VF_Slip_Comp_FilterPole
0000c132   _VF_IR_Comp_FilterPole
0000c134   _AT_Freq_Leq_Req
0000c136   _VF_Rs
0000c138   _code_Ki_Is_Coeff
0000c13a   _AT_Time_Jm
0000c13c   _wr_FilterPoleCoeff
0000c13e   _code_Kp_Is_Coeff
0000c140   _wn_wr_Coeff
0000c142   _AT_Freq_Ls
0000c144   _AT_Time_Leq_Req
0000c146   _AT_Ls_DMB_OpenTime
0000c148   _AT_Time_Ls
0000c14a   _AT_Te_Coeff_Jm
0000c14c   _u_phase_I_sense_span
0000c14e   _I_sense_value
0000c150   _vdc_sense_zero
0000c152   _v_phase_I_sense_span
0000c154   _vdc_sense_span
0000c156   _Ls
0000c158   _Rr
0000c15a   _Lm
0000c15c   _Lr
0000c15e   _VF_Fs_Coeff
0000c160   _VF_ExcitationTime
0000c162   _VF_Vs_Coeff_TrqBoost
0000c164   _VF_Freq_TrqBoost
0000c166   _VF_Rs_ThermalCoeff
0000c168   _igbt_pwm_freq
0000c16a   _Jm
0000c16c   _S_phase_I_sense_span
0000c16e   _R_phase_I_sense_span
0000c170   _Data_Load
0000c172   _Data_Backup
0000c174   _GainUpdateTimer
0000c176   _Data_Init
0000c178   _Vs_Coeff_Leq_Req
0000c17a   _Max_DeltaTheta
0000c17c   _GammaTheta_R
0000c17e   _Delta_wr_FilterPoleCoeff_U
0000c180   _Delta_wr_FilterPoleCoeff_L
0000c182   _Freq_rat
0000c184   _Is_Leq_Req
0000c186   _time_t
0000c188   _inv_Freq_rat
0000c18a   _Vdc_fnd_data
0000c18c   _LPF_Is
0000c18e   _Data_Check
0000c190   _LPF_Vs_Square
0000c192   _LPF_Is_Square
0000c194   _LPF_Re_Power
0000c196   _ExcitationTime
0000c198   _Base_Flux_Coeff
0000c19a   _GM_Fr
0000c19c   _K_Damp_Fr
0000c19e   _PM_Fr
0000c1a0   _Max_wn_wr
0000c1a2   _VF_DeadTimeGain
0000c1a4   _wr_DampingRatio
0000c1a6   _K_Damp_wr
0000c1a8   _GammaLambda
0000c1aa   _SlipCompCoeff
0000c1ac   _Max_DeltaLambda
0000c1ae   _GammaLambda_R_Constant
0000c1b0   _GammaTheta_M
0000c1b2   _K_Damp_Is
0000c1b4   _FW_VoltageCoeff
0000c1b6   _PM_Is
0000c1b8   _GM_Is
0000c1ba   _Default_wr_FilterPole
0000c1bc   _code_dac_scale_ch1
0000c1be   _analog_cmd_in_span2
0000c1c0   _code_dac_scale_ch2
0000c1c2   _code_dac_offset_ch1
0000c1c4   _code_dac_offset_ch2
0000c1c6   _hyd_integal_limit
0000c1c8   _K_damp_hyd_press
0000c1ca   _analog_cmd_in_span1
0000c1cc   _analog_cmd_in_zero1
0000c1ce   _over_volt_set
0000c1d0   _over_current_level
0000c1d2   _over_speed_level
0000c1d4   _under_volt_set
0000c1d6   _e_thermal_level
0000c1d8   _code_dac_scale_ch3
0000c1da   _analog_cmd_in_zero2
0000c1dc   _code_dac_scale_ch4
0000c1de   _code_dac_offset_ch3
0000c1e0   _code_dac_offset_ch4
0000c1e2   _min_vf_ref
0000c1e4   _jog_speed
0000c1e6   _code_speed2
0000c1e8   _digital_speed2
0000c1ea   _code_speed3
0000c1ec   _decel_time1
0000c1ee   _accel_time1
0000c1f0   _decel_time2
0000c1f2   _accel_time2
0000c1f4   _hyd_max_ref
0000c1f6   _hyd_idle_ref
0000c1f8   _Ki_hyd_press
0000c1fa   _hyd_decel_time
0000c1fc   _Kp_hyd_press
0000c1fe   _code_speed4
0000c200   _btn_start_ref
0000c202   _hyd_press_ref
0000c204   _code_speed5
0000c206   _code_adc_Vs_T_high
0000c208   _code_adc_Vs_T_low
0000c20a   _code_Vs_T_calc_high
0000c20c   _code_Vs_T_calc_low
0000c20e   _code_LPF_cutoff_hz_I
0000c210   _code_Vs_S_calc_low
0000c212   _code_adc_Vs_S_high
0000c214   _code_Vs_T_scaler
0000c216   _code_Vs_S_calc_high
0000c218   _motor_rate_rpm
0000c21a   _motor_rate_hz
0000c21c   _motor_rate_effiency
0000c21e   _motor_pole
0000c220   _Rs
0000c222   _code_LPF_cutoff_hz_V
0000c224   _code_Vs_T_offseter
0000c226   _motor_rate_volt
0000c228   _motor_rate_power
0000c22a   _motor_rate_current
0000c22c   _code_adc_vdc_low
0000c22e   _code_Vdc_offseter
0000c230   _code_Vdc_calc_low
0000c232   _code_adc_vdc_high
0000c234   _code_Vdc_calc_high
0000c236   _pre_charge_time
0000c238   _hyd_press_ctrl_band
0000c23a   _over_I_time
0000c23c   _Is_Max_Coeff
0000c23e   _code_Vs_R_calc_high
0000c240   _code_Vs_R_calc_low
0000c242   _code_Vs_S_offseter
0000c244   _code_Vs_S_scaler
0000c246   _code_adc_Vs_S_low
0000c248   _code_Vs_R_scaler
0000c24a   _code_Vdc_scaler
0000c24c   _code_adc_Vs_R_low
0000c24e   _code_Vs_R_offseter
0000c250   _code_adc_Vs_R_high
0000c252   _pll_out
0000c254   _Ude_Limit
0000c256   _theta_pll
0000c258   _SysWe
0000c25a   _Ude_err
0000c25c   _Ureal_rms
0000c25e   _Ude_integ_pre
0000c260   _Ude_integ
0000c262   _theta60
0000c264   _fIn_DC_Voltage_err
0000c266   _fIn_Iqe_axis
0000c268   _DC_LINK_N
0000c26a   _DC_LINK_P
0000c26c   _beta_cur
0000c26e   _alpha_cur
0000c270   _fIn_Ide_axis
0000c272   _RMS_Iin
0000c274   _fIn_cmpr2
0000c276   _fIn_cmpr1
0000c278   _fIn_PWM_R
0000c27a   _fIn_cmpr3
0000c27c   _fIn_min
0000c27e   _fIn_max
0000c280   _uIn_Flag_OM
0000c282   _fIn_a
0000c284   _fIn_PWM_S
0000c286   _fOut_Va_ref
0000c288   _fOut_Vds_axis_out
0000c28a   _Cos_theta
0000c28c   _Sin_theta
0000c28e   _fIn_PHASE_CMPR
0000c290   _fIn_PWM_T
0000c292   _fIn_PHASE_CMPT
0000c294   _fIn_PHASE_CMPS
0000c296   _a0
0000c298   _SOCCoeff1
0000c29a   _fSysFreqCoeff2
0000c29c   _VDCCoeff1
0000c29e   _SOCCoeff2
0000c2a0   _fSysDqeLpfCoeff1
0000c2a2   _fSysAbcLpfCoeff2
0000c2a4   _fSysFreqCoeff1
0000c2a6   _fSysDqeLpfCoeff2
0000c2a8   _VDCCoeff2
0000c2aa   _Current_Output_T
0000c2ac   _Current_Output_S
0000c2ae   _Voltage_Output_R
0000c2b0   _fIn_Ib
0000c2b2   _Current_Input_S
0000c2b4   _Current_Input_R
0000c2b6   _Current_Output_R
0000c2b8   _Current_Input_T
0000c2ba   _div_a0
0000c2bc   _b2
0000c2be   _Upb
0000c2c0   _Upa
0000c2c2   _a2
0000c2c4   _a1
0000c2c6   _b1
0000c2c8   _b0
0000c2ca   _Upc
0000c2cc   _Voltage_Input_ST
0000c2ce   _Voltage_Input_RS
0000c2d0   _fSysAbcLpfCoeff1
0000c2d2   _SUM_DC_LINK
0000c2d4   _Up_beta
0000c2d6   _Up_alpha
0000c2d8   _Uqe_pll
0000c2da   _Ude_pll
0000c2dc   _Voltage_Output_S
0000c2de   _fIn_Ide_out
0000c2e0   _fIn_Iqe_Ffest
0000c2e2   _fOut_SysWe
0000c2e4   _fIn_Iqe_out
0000c2e6   _fIn_Iqe_err
0000c2e8   _fIn_Iqe_axis_ref
0000c2ea   _fIn_Ide_Ffest
0000c2ec   _fIn_Ide_err
0000c2ee   _fOut_theta_pll
0000c2f0   _Out_fIn_Ide_axis
0000c2f2   _RMS_Iout
0000c2f4   _Voltage_Output_RS
0000c2f6   _Out_fIn_Iqe_axis
0000c2f8   _fOut_Sin_theta
0000c2fa   _fOut_Cos_theta
0000c2fc   _Out_beta_cur
0000c2fe   _Out_alpha_cur
0000c300   _fOut_Vqs_axis_out
0000c302   _fOut_PHASE_CMPT
0000c304   _fOut_Vc_ref
0000c306   _fOut_Vb_ref
0000c308   _fOut_PWM_T
0000c30a   _fOut_PHASE_CMPS
0000c30c   _fOut_PHASE_CMPR
0000c30e   _fOut_max
0000c310   _fOut_PWM_R
0000c312   _fOut_cmpr3
0000c314   _fIn_Ide_axis_ref
0000c316   _fOut_PWM_S
0000c318   _fOut_a
0000c31a   _fOut_min
0000c31c   _fOut_cmpr2
0000c31e   _fOut_cmpr1
0000c320   _Voltage_Output_ST
0000c322   _fOut_Vqe_integ
0000c324   _fOut_Vde_ref_out
0000c326   _fOut_Vqe_integ_pre
0000c328   _fOut_Vqe_Ki
0000c32a   _fOut_Vde_axis_ref
0000c32c   _fOut_Vde_Ffest
0000c32e   _fOut_Vde_Kp
0000c330   _fOut_Vde_axis_out
0000c332   _fOut_Vqe_limit
0000c334   _fIn_Vqs_axis
0000c336   _fIn_Vds_axis
0000c338   _fIn_Vb_ref
0000c33a   _fIn_Va_ref
0000c33c   _fOut_Vqe_axis_out
0000c33e   _fOut_Vqe_Ffest
0000c340   _fOut_Vqe_ref_out
0000c342   _fOut_Vqe_Kp
0000c344   _fOut_Vde_axis
0000c346   _fOut_Vqs_axis
0000c348   _P_out
0000c34a   _fOut_Vqe_axis
0000c34c   _Ubn_out
0000c34e   _Uan_out
0000c350   _fOut_Vds_axis
0000c352   _Ucn_out
0000c354   _fOut_Vqe_axis_ref
0000c356   _fOut_Vde_Ki
0000c358   _fOut_Vde_integ
0000c35a   _fOut_Vde_limit
0000c35c   _fOut_Vde_integ_pre
0000c35e   _fOut_Vde_err
0000c360   _fOut_Vqe_axis_cmd
0000c362   _RMS_Vout
0000c364   _fOut_Vqe_err
0000c366   _fIn_Vc_ref
0000c368   _Ts
0000c36a   _ref_time
0000c36c   _gfRunTime
0000c36e   _inv_Ts
0000c370   _Vs_S_calc_offset
0000c372   _Vs_S_factor
0000c374   _Vs_T_calc_offset
0000c376   _Vs_T_factor
0000c378   _Freq_set
0000c37a   _we_rat
0000c37c   _inv_Is_rat
0000c37e   _Is_mag
0000c380   _inv_motor_rate_hz
0000c382   _Im_Power
0000c384   _Re_Power
0000c386   _Is_rat
0000c388   _Vs_rat
0000c38a   _dac_ch0_unit_count_value
0000c38c   _analog_ref_b
0000c38e   _dac_ch2_unit_count_value
0000c390   _dac_ch1_unit_count_value
0000c392   _LPF_Vdc_in
0000c394   _LPF_Vdc_out
0000c396   _analog_ref_a
0000c398   _LPF_Vdc_feed
0000c39a   _dac_ch3_unit_count_value
0000c39c   _Vdc_calc_offset
0000c39e   _Vdc_factor
0000c3a0   _Vs_R_calc_offset
0000c3a2   _Vs_R_factor
0000c3a4   _inv_code_dac_scale_ch2
0000c3a6   _inv_code_dac_scale_ch1
0000c3a8   _inv_code_dac_scale_ch4
0000c3aa   _inv_code_dac_scale_ch3
0000c3ac   _Is_mag_rms
0000c3ae   _wr_ErrInt
0000c3b0   _wr_err
0000c3b2   _w_sl0
0000c3b4   _w_sl
0000c3b6   _wr
0000c3b8   _wr_m0
0000c3ba   _wr_ref0
0000c3bc   _wr_ref
0000c3be   _we_FW
0000c3c0   _Vo
0000c3c2   _prev_I_QS
0000c3c4   _Fs_ref0
0000c3c6   _Vs_max_FW
0000c3c8   _rpm_m
0000c3ca   _we_FW1
0000c3cc   _rpm_err
0000c3ce   _rpm_ref
0000c3d0   _reference_in
0000c3d2   _rpm
0000c3d4   _reference0
0000c3d6   _reference_out
0000c3d8   _Vdc
0000c3da   _Is_max
0000c3dc   _Freq_out
0000c3de   _Vs_max
0000c3e0   _reference1
0000c3e2   _SinTheta
0000c3e4   _theta
0000c3e6   _wr_m
0000c3e8   _CosTheta
0000c3ea   _we
0000c3ec   _we_in
0000c3ee   _frequency
0000c3f0   _we0
0000c3f2   _Fs_ref
0000c3f4   _fIn_Vqe_axis
0000c3f6   _fIn_Iqe_integ
0000c3f8   _fIn_Ide_integ_pre
0000c3fa   _fIn_Vde_axis
0000c3fc   _fIn_Ide_integ
0000c3fe   _Ucn_beta
0000c400   _fIn_DC_Voltage_integ_pre
0000c402   _fIn_DC_Voltage_out
0000c404   _fIn_DC_Voltage_integ
0000c406   _fIn_DC_Voltage_ref
0000c408   _fIn_DC_Voltage_ref_cmd
0000c40a   _fIn_Iqe_integ_pre
0000c40c   _Uanpu
0000c40e   _Ubnpu
0000c410   _Ucn
0000c412   _Uan
0000c414   _Ubn
0000c416   _Voltage_Output_T
0000c418   _Ubn_beta
0000c41a   _Ucn_alpha
0000c41c   _Ubn_alpha
0000c41e   _Uan_alpha
0000c420   _Uan_beta
0000c422   _Ucnpu
0000c424   _pCoeff_V2
0000c426   _LPF_Ia_out
0000c428   _pCoeff_I2
0000c42a   _pCoeff_V1
0000c42c   _pCoeff_I1
0000c42e   _LPF_Ib_in
0000c430   _LPF_Ib_feed
0000c432   _LPF_Ia_feed
0000c434   _LPF_Ib_out
0000c436   _LPF_Ia_in
0000c438   _DutyCount
0000c43c   _LPF_Current_Input_T
0000c440   _LPF_Current_Input_S
0000c444   _Us_dq
0000c448   _Vs_dq
0000c44c   _Vs_DQ
0000c450   _Vs_DQ_max
0000c454   _Vs_dq_ref
0000c458   _LPF_fIn_Ide_axis
0000c45c   _LPF_fIn_Iqe_axis
0000c460   _Is_dq_ref
0000c464   _Is_dq_ErrInt
0000c468   _Is_DQ
0000c46c   _Is_DQ_ref
0000c470   _Is_DQ_max
0000c474   _Jm_SampleData
0000c478   _LPF_Current_Output_R
0000c47c   _LPF_Current_Input_R
0000c480   _LPF_Current_Output_S
0000c484   _LPF_Current_Output_T
0000c488   _Is_DQ_ErrInt
0000c48c   _LPF_Urmsp
0000c490   _LPF_Active
0000c494   _LPF_Ude_pll
0000c498   _LPF_Uqe_pll
0000c49c   _Vs_DQ_ref_PI
0000c4a0   _Is_dq
0000c4a4   _Fs_dq
0000c4a8   _LPF_del_freq
0000c4ac   _LPF_Reactive
0000c4b0   _LPF_Voltage_Output_R
0000c4b4   _LPF_Voltage_Output_S
0000c4b8   _LPF_Voltage_Input_RS
0000c4bc   _LPF_Voltage_Input_ST
0000c4c0   _LPF_DCLINK_voltage
0000c4c4   _Vs_DQ_ref_P
0000c4c8   _LPF_SOC
0000c4cc   _Vs_DQ_ref
0000c4d0   _Vs_DQ_comp
0000c4d4   _LPF_Voltage_Output_T
0000c4d8   _DutyRatio
0000c4de   _Vs_abc
0000c4e4   _Vs_abc_ref
0000c4ea   _sgn_Is
0000c4f0   _Is_abc
0000c4f6   _Jm_ID_t
0000c500   _Jm_ID_Te
0000c508   _Jm_ID_wr
0000c510   _DF_Uan
0000c51a   _DF_Ubn
0000c524   _DF_Ucn
0000c52e   _gStr2
0000c540   _adc_result
0000c550   _gSciaRxBuf
0000c561   _gSciaTxBuf
0000c580   _MonitorMsg
0000c5c0   _gStr1
0000c600   _code_inform
0000c640   _TripInfoNow
0000c6c0   _TripInfo
0000c740   _dac_point
0000c808   _CpuTimer1
0000c810   _CpuTimer2
0000c818   _CpuTimer0
0000c828   _Dd
0000c82a   _T_d
0000c82c   _delta_Tc
0000c834   __cleanup_ptr
0000c836   __dtors_ptr
0000c838   __unlock
0000c83a   __lock
0000c840   _scib_tx_end_addr
0000c841   _scib_tx_start_addr
0000c843   _scib_rx_end_addr
0000c844   _scib_rx_start_addr
0000c848   _TimeInput
0000c866   _scib_rx_msg_box
0000c880   _scib_tx_msg_box
0000c8e8   _errno
0000c8e9   _PartIdRegs
00100000   _ZONE6_BUF
00200000   _ZONE7_BUF
00318000   .text
00318000   ___text__
00318000   _sqrt
00318020   _estim_ReqLeq_pwm
0031833e   _estim_Rs_pwm
0031842b   _estim_Ls_pwm
00318a3c   _estim_Jm_pwm
00318bba   _estim_req_leq_loop
00318dfc   _estim_Rs_loop
00318e9e   _estim_Ls_loop
0031921c   _estim_Jm_loop
0031956a   _parameter_estimation
003196b6   _get_code_group0
00319998   _get_code_group1
00319af8   _get_code_group2
00319ce5   _get_code_group3
0031a161   _get_code_group4
0031a34f   _get_code_group5
0031a51e   _get_code_group6
0031a853   _get_code_group7
0031abc4   _get_code_group8
0031b4b1   __printfi
0031b5b7   _SL_SpeedCntl_SFRF
0031b681   _SL_TorqueCntl_SFRF
0031b6b2   _SL_VectCntl_SFRF
0031bed1   _HardwareParameterVerification
0031c085   _COMMON_VECT_CNTL_ParameterVerification
0031c39b   _COMMON_SL_VECT_CNTL_ParameterVerification
0031c4f7   _SL_TORQUE_CNTL_Parameter
0031c506   _SL_SPEED_CNTL_Parameter
0031c653   _scib_fifo_init
0031c6aa   _scib_tx_msg
0031c6c0   _load_scib_tx_mail_box_char
0031c6e3   _load_scib_tx_mail_box
0031c70d   _scibTxFifoIsr
0031c769   _scibRxFifoIsr
0031c7e8   _scib_cmd_proc
0031cc97   _trip_recording
0031ccc9   _chk_invt_OC
0031cd7d   _CheckOverVolt
0031cdac   _CheckUndeVolt
0031cddd   _CheckOverSpeed
0031ce10   _CheckIGBTFault
0031ce56   _CheckOverHeat
0031ce74   _trip_check
0031ce95   _TripProc
0031cfa0   _GetTripInfo
0031d085   _WriteTripString
0031d0ba   _ReadTripString
0031d0de   _SaveTripDataToEeprom
0031d151   _ClearTripDataToEeprom
0031d1c2   _main
0031d43f   _InitEPwm_ACIM_Inverter
0031d5e4   _wakeint_isr
0031d5f8   _InitWatchDog
0031d616   _get_code_information
0031d672   _set_code_default_int
0031d68d   _set_code_default_double
0031d6ad   _check_backup_data
0031d6f7   _save_backup_data
0031d72e   _backup_data_load
0031d77f   _CheckSum
0031d781   _CheckSum_bk
0031d7b8   _SaveDataProc
0031d964   _init_eprom_data
0031d9de   _SpaceVectorModulation
0031dc71   _VoltageEstimation
0031dda3   _InitGpio
0031e09c   _InitXintf
0031e130   _I2CA_Init
0031e142   _I2CA_WriteData
0031e19f   _I2CA_ReadData
0031e208   _get_eprom_address
0031e26a   _write_code_2_eeprom
0031e29f   _read_eprom_data
0031e2e1   _data_under_proc
0031e325   _data_over_proc
0031e369   _invalid_address_proc
0031e392   _check_code_data
0031e3e1   _load_code2ram
0031e45a   _INT13_ISR
0031e464   _INT14_ISR
0031e46e   _DATALOG_ISR
0031e478   _RTOSINT_ISR
0031e482   _EMUINT_ISR
0031e48c   _NMI_ISR
0031e496   _ILLEGAL_ISR
0031e4a0   _USER1_ISR
0031e4aa   _USER2_ISR
0031e4b4   _USER3_ISR
0031e4be   _USER4_ISR
0031e4c8   _USER5_ISR
0031e4d2   _USER6_ISR
0031e4dc   _USER7_ISR
0031e4e6   _USER8_ISR
0031e4f0   _USER9_ISR
0031e4fa   _USER10_ISR
0031e504   _USER11_ISR
0031e50e   _USER12_ISR
0031e518   _SEQ1INT_ISR
0031e522   _SEQ2INT_ISR
0031e52c   _XINT1_ISR
0031e536   _XINT2_ISR
0031e540   _ADCINT_ISR
0031e54a   _TINT0_ISR
0031e554   _WAKEINT_ISR
0031e55e   _EPWM1_TZINT_ISR
0031e568   _EPWM2_TZINT_ISR
0031e572   _EPWM3_TZINT_ISR
0031e57c   _EPWM4_TZINT_ISR
0031e586   _EPWM5_TZINT_ISR
0031e590   _EPWM6_TZINT_ISR
0031e59a   _EPWM1_INT_ISR
0031e5a4   _EPWM2_INT_ISR
0031e5ae   _EPWM3_INT_ISR
0031e5b8   _EPWM4_INT_ISR
0031e5c2   _EPWM5_INT_ISR
0031e5cc   _EPWM6_INT_ISR
0031e5d6   _ECAP1_INT_ISR
0031e5e0   _ECAP2_INT_ISR
0031e5ea   _ECAP3_INT_ISR
0031e5f4   _ECAP4_INT_ISR
0031e5fe   _ECAP5_INT_ISR
0031e608   _ECAP6_INT_ISR
0031e612   _EQEP1_INT_ISR
0031e61c   _EQEP2_INT_ISR
0031e626   _SPIRXINTA_ISR
0031e630   _SPITXINTA_ISR
0031e63a   _MRINTB_ISR
0031e644   _MXINTB_ISR
0031e64e   _MRINTA_ISR
0031e658   _MXINTA_ISR
0031e662   _DINTCH1_ISR
0031e66c   _DINTCH2_ISR
0031e676   _DINTCH3_ISR
0031e680   _DINTCH4_ISR
0031e68a   _DINTCH5_ISR
0031e694   _DINTCH6_ISR
0031e69e   _I2CINT1A_ISR
0031e6a8   _I2CINT2A_ISR
0031e6b2   _SCIRXINTC_ISR
0031e6bc   _SCITXINTC_ISR
0031e6c6   _SCIRXINTA_ISR
0031e6d0   _SCITXINTA_ISR
0031e6da   _SCIRXINTB_ISR
0031e6e4   _SCITXINTB_ISR
0031e6ee   _ECAN0INTA_ISR
0031e6f8   _ECAN1INTA_ISR
0031e702   _ECAN0INTB_ISR
0031e70c   _ECAN1INTB_ISR
0031e716   _XINT3_ISR
0031e720   _XINT4_ISR
0031e72a   _XINT5_ISR
0031e734   _XINT6_ISR
0031e73e   _XINT7_ISR
0031e748   _LVF_ISR
0031e752   _LUF_ISR
0031e75c   _PIE_RESERVED
0031e766   _rsvd_ISR
0031e770   _VariInit
0031ea78   _linear_eq
0031eab3   _LPF1
0031ead2   _Nop
0031ead5   _PI_Damp_Controller
0031eb3b   _SetSensorOffset
0031eb3c   _PowerOnReset
0031eb3d   _ulGetTime_mSec
0031eb54   _ulGetNow_mSec
0031eb58   _delay_msecs
0031eb6b   _periodic_check
0031eb7f   _iGetAinCmd
0031eb8c   _analog_cmd_proc
0031eb9d   _get_command
0031ebf2   _get_adc_offset
0031ec99   _get_adc_vdc_low
0031ecf5   _get_adc_vdc_high
0031ed51   _InitAdc
0031edb6   _Adc_Isr
0031ef98   _free
0031efe1   _minit
0031f00c   _malloc
0031f067   _realloc
0031f12f   _max_free
0031f151   _free_memory
0031f16f   _chkheap
0031f171   _calloc
0031f18c   _vf_loop_control
0031f2be   _vf_frequency_control
0031f2c5   _vf_simple_control
0031f36e   _InitSysCtrl
0031f377   _ServiceDog
0031f381   _DisableDog
0031f389   _InitPll
0031f3dc   _InitPeripheralClocks
0031f48c   _CsmUnlock
0031f4bd   _strtod
0031f5f5   _set_dac_point
0031f723   _fault_reset
0031f729   _driver_enable_proc
0031f72c   _input_ai_ref_active_proc
0031f72f   _input_ai_local_remote_proc
0031f732   _input_ext_fault_b_proc
0031f735   _input_motor_select_proc
0031f738   _input_mb_brake_state_proc
0031f73b   _input_acel_decel_switch_proc
0031f73e   _input_ref_tunning_inc_proc
0031f741   _input_ref_tunning_dec_proc
0031f744   _input_acc_dec_byp_proc
0031f747   _input_ext_fault_a_proc
0031f756   _digital_input_proc
0031f793   _digital_port_check
0031f7f4   _digital_out_proc
0031f840   _DS1307WriteData
0031f869   _DS1307ReadData
0031f895   _GetTimeAndDateStr
0031f906   _WriteTimeToDS1307
0031f958   _MotorControlProc
0031f9a3   _MainPWM
0031fa65   _test_run
0031fb6e   LL$$DIV
0031fbaa   LL$$MOD
0031fbe4   ULL$$DIV
0031fc13   ULL$$MOD
0031fc75   _RefFunc
0031fd68   _ramp_proc
0031fd7c   _dac8412_out
0031fe6a   _EPwm_ISC_Enable
0031fe8a   _EPwm_OSC_Enable
0031feb6   _EPwm_All_Disable
0031ff57   FD$$ADD
0031fff3   _InitCpuTimers
0032003f   _ConfigCpuTimer
00320086   FD$$DIV
00320111   FS$$DIV
00320199   _cpu_timer0_isr
0032021e   FD$$MPY
003202a1   _cos
00320302   _sin
00320361   _snprintf
003203cc   _monitor_proc
00320404   _GetInputMark
0032040e   _c_int00
00320454   _atoi
00320485   _ltoa
003204b3   L$$DIV
003204c2   L$$MOD
003204d0   UL$$DIV
003204d7   UL$$MOD
003204dd   FD$$CMP
00320507   _InitPieCtrl
00320526   _EnableInterrupts
00320531   I$$DIV
00320542   I$$MOD
00320553   _InitPieVectTable
00320575   ___memcpy_ff
00320596   FD$$TOI
003205b7   _strncpy
003205d7   FD$$TOL
003205f6   LL$$CMP
00320608   ULL$$CMP
00320614   L$$TOFD
00320630   FS$$TOFD
0032064c   _modf
00320666   _serial_com_proc
00320680   C$$EXIT
00320680   _abort
00320682   _exit
00320698   _MemCopy
003206af   __args_main
003206c4   LL$$MPY
003206d8   _memccpy
003206ea   FD$$SUB
003206f8   _strlen
00320702   __register_unlock
00320706   __register_lock
0032070a   __nop
0032070b   _strcpy
00320714   FD$$NEG
00320725   _memset
0032072c   _RamfuncsLoadStart
0032072c   ___etext__
0032072c   etext
00320753   _RamfuncsLoadEnd
00339400   _PieVectTableInit
003397ee   __ctypes_
003398ef   ___cinit__
003398ef   cinit
0033fff6   code_start
0033fff8   _CsmPwl
00380080   _ADC_cal
ffffffff   ___TI_pprof_out_hndl
ffffffff   ___TI_prof_var_size
ffffffff   ___TI_prof_var_start
ffffffff   ___binit__
ffffffff   ___c_args__
ffffffff   ___pinit__
ffffffff   binit
ffffffff   pinit

[1025 symbols]
