******************************************************************************
        TMS320C2000 COFF Linker PC v5.0.1                      
******************************************************************************
>> Linked Thu Oct 13 12:52:57 2011

OUTPUT FILE NAME:   <./Debug/pcbdebug_ram.out>
ENTRY POINT SYMBOL: "_c_int00"  address: 0000dd33


MEMORY CONFIGURATION

         name            origin    length      used     unused   attr    fill
----------------------  --------  ---------  --------  --------  ----  --------
PAGE 0:
  BEGIN                 00000000   00000002  00000002  00000000  RWIX
  BOOT_RSVD             00000002   0000004e  00000000  0000004e  RWIX
  RAMM0                 00000050   000003b0  00000000  000003b0  RWIX
  RAML0                 00008000   00000500  00000477  00000089  RWIX
  RAML1                 00008500   00006000  00005b5c  000004a4  RWIX
  ZONE7A                00200000   0000fc00  00000000  0000fc00  RWIX
  CSM_RSVD              0033ff80   00000076  00000000  00000076  RWIX
  CSM_PWL               0033fff8   00000008  00000000  00000008  RWIX
  ADC_CAL               00380080   00000009  00000007  00000002  RWIX
  IQTABLES              003fe000   00000b50  00000000  00000b50  RWIX
  IQTABLES2             003feb50   0000008c  00000000  0000008c  RWIX
  FPUTABLES             003febdc   000006a0  00000000  000006a0  RWIX
  BOOTROM               003ff27c   00000d44  00000000  00000d44  RWIX
  RESET                 003fffc0   00000002  00000000  00000002  RWIX

PAGE 1:
  RAMM1                 00000400   00000400  00000300  00000100  RWIX
  DEV_EMU               00000880   00000180  000000d0  000000b0  RWIX
  FLASH_REGS            00000a80   00000060  00000008  00000058  RWIX
  CSM                   00000ae0   00000010  00000010  00000000  RWIX
  ADC_MIRROR            00000b00   00000010  00000010  00000000  RWIX
  XINTF                 00000b20   00000020  0000001e  00000002  RWIX
  CPU_TIMER0            00000c00   00000008  00000008  00000000  RWIX
  CPU_TIMER1            00000c08   00000008  00000008  00000000  RWIX
  CPU_TIMER2            00000c10   00000008  00000008  00000000  RWIX
  PIE_CTRL              00000ce0   00000020  0000001a  00000006  RWIX
  PIE_VECT              00000d00   00000100  00000100  00000000  RWIX
  DMA                   00001000   00000200  000000e0  00000120  RWIX
  ZONE0                 00004000   00001000  00000100  00000f00  RWIX
  MCBSPA                00005000   00000040  00000025  0000001b  RWIX
  MCBSPB                00005040   00000040  00000025  0000001b  RWIX
  ECANA                 00006000   00000040  00000034  0000000c  RWIX
  ECANA_LAM             00006040   00000040  00000040  00000000  RWIX
  ECANA_MOTS            00006080   00000040  00000040  00000000  RWIX
  ECANA_MOTO            000060c0   00000040  00000040  00000000  RWIX
  ECANA_MBOX            00006100   00000100  00000100  00000000  RWIX
  ECANB                 00006200   00000040  00000034  0000000c  RWIX
  ECANB_LAM             00006240   00000040  00000040  00000000  RWIX
  ECANB_MOTS            00006280   00000040  00000040  00000000  RWIX
  ECANB_MOTO            000062c0   00000040  00000040  00000000  RWIX
  ECANB_MBOX            00006300   00000100  00000100  00000000  RWIX
  EPWM1                 00006800   00000022  00000022  00000000  RWIX
  EPWM2                 00006840   00000022  00000022  00000000  RWIX
  EPWM3                 00006880   00000022  00000022  00000000  RWIX
  EPWM4                 000068c0   00000022  00000022  00000000  RWIX
  EPWM5                 00006900   00000022  00000022  00000000  RWIX
  EPWM6                 00006940   00000022  00000022  00000000  RWIX
  ECAP1                 00006a00   00000020  00000020  00000000  RWIX
  ECAP2                 00006a20   00000020  00000020  00000000  RWIX
  ECAP3                 00006a40   00000020  00000020  00000000  RWIX
  ECAP4                 00006a60   00000020  00000020  00000000  RWIX
  ECAP5                 00006a80   00000020  00000020  00000000  RWIX
  ECAP6                 00006aa0   00000020  00000020  00000000  RWIX
  EQEP1                 00006b00   00000040  00000040  00000000  RWIX
  EQEP2                 00006b40   00000040  00000040  00000000  RWIX
  GPIOCTRL              00006f80   00000040  0000002e  00000012  RWIX
  GPIODAT               00006fc0   00000020  00000020  00000000  RWIX
  GPIOINT               00006fe0   00000020  0000000a  00000016  RWIX
  SYSTEM                00007010   00000020  00000020  00000000  RWIX
  SPIA                  00007040   00000010  00000010  00000000  RWIX
  SCIA                  00007050   00000010  00000010  00000000  RWIX
  XINTRUPT              00007070   00000010  00000010  00000000  RWIX
  ADC                   00007100   00000020  0000001e  00000002  RWIX
  SCIB                  00007750   00000010  00000010  00000000  RWIX
  SCIC                  00007770   00000010  00000010  00000000  RWIX
  I2CA                  00007900   00000040  00000022  0000001e  RWIX
  RAML4                 0000e500   00001b00  000017f0  00000310  RWIX
  ZONE6                 00100000   00100000  00010000  000f0000  RWIX
  ZONE7B                0020fc00   00000400  00000400  00000000  RWIX
  CSM_PWL               0033fff8   00000008  00000008  00000000  RWIX


SECTION ALLOCATION MAP

 output                                  attributes/
section   page    origin      length       input sections
--------  ----  ----------  ----------   ----------------
.data      0    00000000    00000000     UNINITIALIZED

codestart 
*          0    00000000    00000002     
                  00000000    00000002     DSP2833x_CodeStartBranch.obj (codestart)

.pinit     0    00008000    00000000     UNINITIALIZED

.cinit     0    00008000    000003c0     
                  00008000    0000000a     rts2800_fpu32.lib : exit.obj (.cinit)
                  0000800a    0000000a                       : _lock.obj (.cinit)
                  00008014    00000005     common_module.obj (.cinit)
                  00008019    00000005     delta_switching_irq.obj (.cinit)
                  0000801e    00000015     delta_trip_proc.obj (.cinit)
                  00008033    00000345     main.obj (.cinit)
                  00008378    00000005     MonitorProc.obj (.cinit)
                  0000837d    00000035     scibv10.obj (.cinit)
                  000083b2    00000005     vf_contol.obj (.cinit)
                  000083b7    00000004     rts2800_fpu32.lib : memory.obj (.cinit)
                  000083bb    00000004                       : errno.obj (.cinit)
                  000083bf    00000001     --HOLE-- [fill = 0]

.switch    0    000083c0    00000090     
                  000083c0    00000090     code_group_all.obj (.switch)

ramfuncs   0    00008450    00000027     
                  00008450    00000023     DSP2833x_SysCtrl.obj (ramfuncs)
                  00008473    00000004     DSP2833x_usDelay.obj (ramfuncs)

IQmath     0    00008500    00000000     UNINITIALIZED

.text      0    00008500    00005b5c     
                  00008500    00000020     rts2800_fpu32.lib : sqrt.obj (.text)
                  00008520    00000df6     code_group_all.obj (.text)
                  00009316    00000990     rts2800_fpu32.lib : _printfi.obj (.text)
                  00009ca6    00000657     scibv10.obj (.text)
                  0000a2fd    000005ca     delta_trip_proc.obj (.text)
                  0000a8c7    000003c8     code_proc.obj (.text)
                  0000ac8f    000003c5     SVM.obj (.text)
                  0000b054    000003a1     regen_dsp_110513_gpio.c (.text)
                  0000b3f5    00000381     analog.obj (.text)
                  0000b776    0000036f     common_module.obj (.text)
                  0000bae5    0000032a     udd_eeprom.obj (.text)
                  0000be0f    00000316     DSP2833x_DefaultIsr.obj (.text)
                  0000c125    00000315     main.obj (.text)
                  0000c43a    00000300     ParameterSet.obj (.text)
                  0000c73a    000001f4     rts2800_fpu32.lib : memory.obj (.text)
                  0000c92e    000001e2     vf_contol.obj (.text)
                  0000cb10    000001ba     Set_Par.obj (.text)
                  0000ccca    000001af     delta_switching_irq.obj (.text)
                  0000ce79    0000014f     DSP2833x_SysCtrl.obj (.text)
                  0000cfc8    00000138     rts2800_fpu32.lib : strtod.obj (.text)
                  0000d100    0000012e     set_dac_point.obj (.text)
                  0000d22e    0000011d     delta_digital_inout.obj (.text)
                  0000d34b    00000118     DS1307.obj (.text)
                  0000d463    00000109     test_run.obj (.text)
                  0000d56c    00000107     rts2800_fpu32.lib : ll_div.obj (.text)
                  0000d673    00000107     RefFunc.obj (.text)
                  0000d77a    00000102     dac_8412.obj (.text)
                  0000d87c    0000009c     rts2800_fpu32.lib : fd_add.obj (.text)
                  0000d918    00000093     DSP2833x_CpuTimers.obj (.text)
                  0000d9ab    0000008b     rts2800_fpu32.lib : fd_div.obj (.text)
                  0000da36    00000088                       : fs_div.obj (.text)
                  0000dabe    00000085     udd_timer_irq.obj (.text)
                  0000db43    00000083     rts2800_fpu32.lib : fd_mpy.obj (.text)
                  0000dbc6    00000061                       : cos.obj (.text)
                  0000dc27    0000005f                       : sin.obj (.text)
                  0000dc86    00000058                       : snprintf.obj (.text)
                  0000dcde    00000055     MonitorProc.obj (.text)
                  0000dd33    00000046     rts2800_fpu32.lib : boot.obj (.text)
                  0000dd79    00000031                       : atoi.obj (.text)
                  0000ddaa    0000002e                       : ltoa.obj (.text)
                  0000ddd8    0000002a                       : l_div.obj (.text)
                  0000de02    0000002a                       : fd_cmp.obj (.text)
                  0000de2c    0000002a     DSP2833x_PieCtrl.obj (.text)
                  0000de56    00000022     rts2800_fpu32.lib : i_div.obj (.text)
                  0000de78    00000022     DSP2833x_PieVect.obj (.text)
                  0000de9a    00000021     rts2800_fpu32.lib : fd_toi.obj (.text)
                  0000debb    00000021                       : memcpy_ff.obj (.text)
                  0000dedc    00000020                       : strncpy.obj (.text)
                  0000defc    0000001f                       : fd_tol.obj (.text)
                  0000df1b    0000001e                       : ll_cmp.obj (.text)
                  0000df39    0000001c                       : l_tofd.obj (.text)
                  0000df55    0000001c                       : fs_tofd.obj (.text)
                  0000df71    0000001a                       : modf.obj (.text)
                  0000df8b    0000001a     serial_com.obj (.text)
                  0000dfa5    00000018     rts2800_fpu32.lib : exit.obj (.text)
                  0000dfbd    00000017     DSP2833x_MemCopy.obj (.text)
                  0000dfd4    00000015     rts2800_fpu32.lib : args_main.obj (.text)
                  0000dfe9    00000014                       : ll_mpy.obj (.text)
                  0000dffd    00000012                       : memccpy.obj (.text)
                  0000e00f    0000000e                       : fd_sub.obj (.text)
                  0000e01d    0000000a                       : strlen.obj (.text)
                  0000e027    00000009                       : fd_neg.obj (.text)
                  0000e030    00000009                       : _lock.obj (.text)
                  0000e039    00000009                       : strcpy.obj (.text)
                  0000e042    00000008     DSP2833x_CodeStartBranch.obj (.text)
                  0000e04a    00000007     rts2800_fpu32.lib : memset.obj (.text)
                  0000e051    00000006     auto_tuning.obj (.text)
                  0000e057    00000003     hyd_unit.obj (.text)
                  0000e05a    00000002     SL_Vect.obj (.text)

csm_rsvd   0    0033ff80    00000000     DSECT

csmpasswds 
*          0    0033fff8    00000000     DSECT

.adc_cal   0    00380080    00000007     NOLOAD SECTION
                  00380080    00000007     DSP2833x_ADC_cal.obj (.adc_cal)

IQmathTables 
*          0    003fe000    00000000     NOLOAD SECTION

IQmathTables2 
*          0    003feb50    00000000     NOLOAD SECTION

FPUmathTables 
*          0    003febdc    00000000     NOLOAD SECTION

.reset     0    003fffc0    00000002     DSECT
                  003fffc0    00000002     rts2800_fpu32.lib : boot.obj (.reset)

.bss       1    00000000    00000000     UNINITIALIZED

.esysmem   1    00000400    00000000     UNINITIALIZED

.stack     1    00000400    00000300     UNINITIALIZED

DevEmuRegsFile 
*          1    00000880    000000d0     UNINITIALIZED
                  00000880    000000d0     DSP2833x_GlobalVariableDefs.obj (DevEmuRegsFile)

FlashRegsFile 
*          1    00000a80    00000008     UNINITIALIZED
                  00000a80    00000008     DSP2833x_GlobalVariableDefs.obj (FlashRegsFile)

CsmRegsFile 
*          1    00000ae0    00000010     UNINITIALIZED
                  00000ae0    00000010     DSP2833x_GlobalVariableDefs.obj (CsmRegsFile)

AdcMirrorFile 
*          1    00000b00    00000010     UNINITIALIZED
                  00000b00    00000010     DSP2833x_GlobalVariableDefs.obj (AdcMirrorFile)

XintfRegsFile 
*          1    00000b20    0000001e     UNINITIALIZED
                  00000b20    0000001e     DSP2833x_GlobalVariableDefs.obj (XintfRegsFile)

CpuTimer0RegsFile 
*          1    00000c00    00000008     UNINITIALIZED
                  00000c00    00000008     DSP2833x_GlobalVariableDefs.obj (CpuTimer0RegsFile)

CpuTimer1RegsFile 
*          1    00000c08    00000008     UNINITIALIZED
                  00000c08    00000008     DSP2833x_GlobalVariableDefs.obj (CpuTimer1RegsFile)

CpuTimer2RegsFile 
*          1    00000c10    00000008     UNINITIALIZED
                  00000c10    00000008     DSP2833x_GlobalVariableDefs.obj (CpuTimer2RegsFile)

PieCtrlRegsFile 
*          1    00000ce0    0000001a     UNINITIALIZED
                  00000ce0    0000001a     DSP2833x_GlobalVariableDefs.obj (PieCtrlRegsFile)

PieVectTableFile 
*          1    00000d00    00000100     UNINITIALIZED
                  00000d00    00000100     DSP2833x_GlobalVariableDefs.obj (PieVectTableFile)

DmaRegsFile 
*          1    00001000    000000e0     UNINITIALIZED
                  00001000    000000e0     DSP2833x_GlobalVariableDefs.obj (DmaRegsFile)

ZONE0DATA 
*          1    00004000    00000100     UNINITIALIZED
                  00004000    00000100     main.obj (ZONE0DATA)

McbspaRegsFile 
*          1    00005000    00000025     UNINITIALIZED
                  00005000    00000025     DSP2833x_GlobalVariableDefs.obj (McbspaRegsFile)

McbspbRegsFile 
*          1    00005040    00000025     UNINITIALIZED
                  00005040    00000025     DSP2833x_GlobalVariableDefs.obj (McbspbRegsFile)

ECanaRegsFile 
*          1    00006000    00000034     UNINITIALIZED
                  00006000    00000034     DSP2833x_GlobalVariableDefs.obj (ECanaRegsFile)

ECanaLAMRegsFile 
*          1    00006040    00000040     UNINITIALIZED
                  00006040    00000040     DSP2833x_GlobalVariableDefs.obj (ECanaLAMRegsFile)

ECanaMOTSRegsFile 
*          1    00006080    00000040     UNINITIALIZED
                  00006080    00000040     DSP2833x_GlobalVariableDefs.obj (ECanaMOTSRegsFile)

ECanaMOTORegsFile 
*          1    000060c0    00000040     UNINITIALIZED
                  000060c0    00000040     DSP2833x_GlobalVariableDefs.obj (ECanaMOTORegsFile)

ECanaMboxesFile 
*          1    00006100    00000100     UNINITIALIZED
                  00006100    00000100     DSP2833x_GlobalVariableDefs.obj (ECanaMboxesFile)

ECanbRegsFile 
*          1    00006200    00000034     UNINITIALIZED
                  00006200    00000034     DSP2833x_GlobalVariableDefs.obj (ECanbRegsFile)

ECanbLAMRegsFile 
*          1    00006240    00000040     UNINITIALIZED
                  00006240    00000040     DSP2833x_GlobalVariableDefs.obj (ECanbLAMRegsFile)

ECanbMOTSRegsFile 
*          1    00006280    00000040     UNINITIALIZED
                  00006280    00000040     DSP2833x_GlobalVariableDefs.obj (ECanbMOTSRegsFile)

ECanbMOTORegsFile 
*          1    000062c0    00000040     UNINITIALIZED
                  000062c0    00000040     DSP2833x_GlobalVariableDefs.obj (ECanbMOTORegsFile)

ECanbMboxesFile 
*          1    00006300    00000100     UNINITIALIZED
                  00006300    00000100     DSP2833x_GlobalVariableDefs.obj (ECanbMboxesFile)

EPwm1RegsFile 
*          1    00006800    00000022     UNINITIALIZED
                  00006800    00000022     DSP2833x_GlobalVariableDefs.obj (EPwm1RegsFile)

EPwm2RegsFile 
*          1    00006840    00000022     UNINITIALIZED
                  00006840    00000022     DSP2833x_GlobalVariableDefs.obj (EPwm2RegsFile)

EPwm3RegsFile 
*          1    00006880    00000022     UNINITIALIZED
                  00006880    00000022     DSP2833x_GlobalVariableDefs.obj (EPwm3RegsFile)

EPwm4RegsFile 
*          1    000068c0    00000022     UNINITIALIZED
                  000068c0    00000022     DSP2833x_GlobalVariableDefs.obj (EPwm4RegsFile)

EPwm5RegsFile 
*          1    00006900    00000022     UNINITIALIZED
                  00006900    00000022     DSP2833x_GlobalVariableDefs.obj (EPwm5RegsFile)

EPwm6RegsFile 
*          1    00006940    00000022     UNINITIALIZED
                  00006940    00000022     DSP2833x_GlobalVariableDefs.obj (EPwm6RegsFile)

ECap1RegsFile 
*          1    00006a00    00000020     UNINITIALIZED
                  00006a00    00000020     DSP2833x_GlobalVariableDefs.obj (ECap1RegsFile)

ECap2RegsFile 
*          1    00006a20    00000020     UNINITIALIZED
                  00006a20    00000020     DSP2833x_GlobalVariableDefs.obj (ECap2RegsFile)

ECap3RegsFile 
*          1    00006a40    00000020     UNINITIALIZED
                  00006a40    00000020     DSP2833x_GlobalVariableDefs.obj (ECap3RegsFile)

ECap4RegsFile 
*          1    00006a60    00000020     UNINITIALIZED
                  00006a60    00000020     DSP2833x_GlobalVariableDefs.obj (ECap4RegsFile)

ECap5RegsFile 
*          1    00006a80    00000020     UNINITIALIZED
                  00006a80    00000020     DSP2833x_GlobalVariableDefs.obj (ECap5RegsFile)

ECap6RegsFile 
*          1    00006aa0    00000020     UNINITIALIZED
                  00006aa0    00000020     DSP2833x_GlobalVariableDefs.obj (ECap6RegsFile)

EQep1RegsFile 
*          1    00006b00    00000040     UNINITIALIZED
                  00006b00    00000040     DSP2833x_GlobalVariableDefs.obj (EQep1RegsFile)

EQep2RegsFile 
*          1    00006b40    00000040     UNINITIALIZED
                  00006b40    00000040     DSP2833x_GlobalVariableDefs.obj (EQep2RegsFile)

GpioCtrlRegsFile 
*          1    00006f80    0000002e     UNINITIALIZED
                  00006f80    0000002e     DSP2833x_GlobalVariableDefs.obj (GpioCtrlRegsFile)

GpioDataRegsFile 
*          1    00006fc0    00000020     UNINITIALIZED
                  00006fc0    00000020     DSP2833x_GlobalVariableDefs.obj (GpioDataRegsFile)

GpioIntRegsFile 
*          1    00006fe0    0000000a     UNINITIALIZED
                  00006fe0    0000000a     DSP2833x_GlobalVariableDefs.obj (GpioIntRegsFile)

SysCtrlRegsFile 
*          1    00007010    00000020     UNINITIALIZED
                  00007010    00000020     DSP2833x_GlobalVariableDefs.obj (SysCtrlRegsFile)

SpiaRegsFile 
*          1    00007040    00000010     UNINITIALIZED
                  00007040    00000010     DSP2833x_GlobalVariableDefs.obj (SpiaRegsFile)

SciaRegsFile 
*          1    00007050    00000010     UNINITIALIZED
                  00007050    00000010     DSP2833x_GlobalVariableDefs.obj (SciaRegsFile)

XIntruptRegsFile 
*          1    00007070    00000010     UNINITIALIZED
                  00007070    00000010     DSP2833x_GlobalVariableDefs.obj (XIntruptRegsFile)

AdcRegsFile 
*          1    00007100    0000001e     UNINITIALIZED
                  00007100    0000001e     DSP2833x_GlobalVariableDefs.obj (AdcRegsFile)

ScibRegsFile 
*          1    00007750    00000010     UNINITIALIZED
                  00007750    00000010     DSP2833x_GlobalVariableDefs.obj (ScibRegsFile)

ScicRegsFile 
*          1    00007770    00000010     UNINITIALIZED
                  00007770    00000010     DSP2833x_GlobalVariableDefs.obj (ScicRegsFile)

I2caRegsFile 
*          1    00007900    00000022     UNINITIALIZED
                  00007900    00000022     DSP2833x_GlobalVariableDefs.obj (I2caRegsFile)

DMARAML4   1    0000e500    00000000     UNINITIALIZED

DMARAML5   1    0000e500    00000000     UNINITIALIZED

DMARAML6   1    0000e500    00000000     UNINITIALIZED

DMARAML7   1    0000e500    00000000     UNINITIALIZED

.econst    1    0000e500    00001143     
                  0000e500    00000801     code_group_all.obj (.econst)
                  0000ed01    00000001     --HOLE-- [fill = 0]
                  0000ed02    000001c0     scibv10.obj (.econst)
                  0000eec2    0000018f     delta_trip_proc.obj (.econst)
                  0000f051    00000001     --HOLE-- [fill = 0]
                  0000f052    00000102     code_proc.obj (.econst)
                  0000f154    00000100     DSP2833x_PieVect.obj (.econst)
                  0000f254    000000bc     common_module.obj (.econst)
                  0000f310    000000b5     udd_eeprom.obj (.econst)
                  0000f3c5    00000001     --HOLE-- [fill = 0]
                  0000f3c6    00000057     test_run.obj (.econst)
                  0000f41d    00000001     --HOLE-- [fill = 0]
                  0000f41e    00000041     vf_contol.obj (.econst)
                  0000f45f    00000001     --HOLE-- [fill = 0]
                  0000f460    0000003c     rts2800_fpu32.lib : _printfi.obj (.econst)
                  0000f49c    00000036     main.obj (.econst)
                  0000f4d2    0000002f     Set_Par.obj (.econst)
                  0000f501    00000001     --HOLE-- [fill = 0]
                  0000f502    00000014     rts2800_fpu32.lib : strtod.obj (.econst:_digits)
                  0000f516    00000010     delta_digital_inout.obj (.econst)
                  0000f526    0000000f     MonitorProc.obj (.econst)
                  0000f535    00000001     --HOLE-- [fill = 0]
                  0000f536    0000000c     rts2800_fpu32.lib : strtod.obj (.econst:_powerof10)
                  0000f542    00000101                       : ctype.obj (.econst:__ctypes_)

.ebss      1    0000f680    000006ad     UNINITIALIZED
                  0000f680    000005c8     main.obj (.ebss)
                  0000fc48    00000018     DSP2833x_CpuTimers.obj (.ebss)
                  0000fc60    00000008     rts2800_fpu32.lib : memory.obj (.ebss)
                  0000fc68    00000006     SVM.obj (.ebss)
                  0000fc6e    00000006     delta_trip_proc.obj (.ebss)
                  0000fc74    00000004     rts2800_fpu32.lib : exit.obj (.ebss)
                  0000fc78    00000004                       : _lock.obj (.ebss)
                  0000fc7c    00000002     MonitorProc.obj (.ebss)
                  0000fc7e    00000002     RefFunc.obj (.ebss)
                  0000fc80    000000a4     scibv10.obj (.ebss)
                  0000fd24    00000002     common_module.obj (.ebss)
                  0000fd26    00000002     delta_switching_irq.obj (.ebss)
                  0000fd28    00000002     vf_contol.obj (.ebss)
                  0000fd2a    00000001     rts2800_fpu32.lib : errno.obj (.ebss)
                  0000fd2b    00000001     DSP2833x_GlobalVariableDefs.obj (.ebss)
                  0000fd2c    00000001     udd_timer_irq.obj (.ebss)

ZONE6DATA 
*          1    00100000    00010000     UNINITIALIZED
                  00100000    00010000     main.obj (ZONE6DATA)

ZONE7DATA 
*          1    0020fc00    00000100     UNINITIALIZED
                  0020fc00    00000100     main.obj (ZONE7DATA)

.sysmem    1    0020fd00    00000300     UNINITIALIZED

CsmPwlFile 
*          1    0033fff8    00000008     UNINITIALIZED
                  0033fff8    00000008     DSP2833x_GlobalVariableDefs.obj (CsmPwlFile)


GLOBAL SYMBOLS: SORTED ALPHABETICALLY BY Name 

address    name
--------   ----
00000000   .bss
00000000   .data
00008500   .text
0000dfa5   C$$EXIT
0000d87c   FD$$ADD
0000de02   FD$$CMP
0000d9ab   FD$$DIV
0000db43   FD$$MPY
0000e027   FD$$NEG
0000e00f   FD$$SUB
0000de9a   FD$$TOI
0000defc   FD$$TOL
0000da36   FS$$DIV
0000df55   FS$$TOFD
0000de56   I$$DIV
0000de67   I$$MOD
0000ddd8   L$$DIV
0000dde7   L$$MOD
0000df39   L$$TOFD
0000df1b   LL$$CMP
0000d56c   LL$$DIV
0000d5a8   LL$$MOD
0000dfe9   LL$$MPY
0000ddf5   UL$$DIV
0000ddfc   UL$$MOD
0000df2d   ULL$$CMP
0000d5e2   ULL$$DIV
0000d611   ULL$$MOD
0000bef5   _ADCINT_ISR
00380080   _ADC_cal
00000b00   _AdcMirror
00007100   _AdcRegs
0000b459   _Adc_Isr
0000f710   _AnaCmdReference
0000f68f   _AutoTuningFlag
0000ccc4   _COMMON_VECT_CNTL_ParameterVerification
0000f8c0   _C_ce
0000f8c4   _C_ce_nF
0000a489   _CheckIGBTFault
0000a4cf   _CheckIGBTFault2
0000a342   _CheckOverCurrent
0000a515   _CheckOverHeat
0000a456   _CheckOverSpeed
0000a3f6   _CheckOverVolt
0000aa30   _CheckSum
0000aa32   _CheckSum_bk
0000a425   _CheckUndeVolt
0000a856   _ClearTripDataToEeprom
0000d964   _ConfigCpuTimer
0000f882   _CosDeltaTheta
0000f7de   _CosTheta
0000f8ba   _CosTheta1
0000fc58   _CpuTimer0
00000c00   _CpuTimer0Regs
0000fc48   _CpuTimer1
00000c08   _CpuTimer1Regs
0000fc50   _CpuTimer2
00000c10   _CpuTimer2Regs
0033fff8   _CsmPwl
00000ae0   _CsmRegs
0000cf97   _CsmUnlock
0000be23   _DATALOG_ISR
0000c017   _DINTCH1_ISR
0000c021   _DINTCH2_ISR
0000c02b   _DINTCH3_ISR
0000c035   _DINTCH4_ISR
0000c03f   _DINTCH5_ISR
0000c049   _DINTCH6_ISR
0000d374   _DS1307ReadData
0000d34b   _DS1307WriteData
00008473   _DSP28x_usDelay
0000f772   _Data_Backup
0000f776   _Data_Check
0000f770   _Data_Init
0000f76e   _Data_Load
0000fc68   _Dd
0000f8c8   _DecRef
0000f886   _DeltaLambda
0000f888   _DeltaTheta
0000f87e   _Delta_wr
0000f8b6   _Delta_wr_Filter_Pole
00000880   _DevEmuRegs
0000ce8c   _DisableDog
00001000   _DmaRegs
0000f8f4   _DutyCount
0000f94c   _DutyRatio
0000c0a3   _ECAN0INTA_ISR
0000c0b7   _ECAN0INTB_ISR
0000c0ad   _ECAN1INTA_ISR
0000c0c1   _ECAN1INTB_ISR
0000bf8b   _ECAP1_INT_ISR
0000bf95   _ECAP2_INT_ISR
0000bf9f   _ECAP3_INT_ISR
0000bfa9   _ECAP4_INT_ISR
0000bfb3   _ECAP5_INT_ISR
0000bfbd   _ECAP6_INT_ISR
00006040   _ECanaLAMRegs
000060c0   _ECanaMOTORegs
00006080   _ECanaMOTSRegs
00006100   _ECanaMboxes
00006000   _ECanaRegs
00006240   _ECanbLAMRegs
000062c0   _ECanbMOTORegs
00006280   _ECanbMOTSRegs
00006300   _ECanbMboxes
00006200   _ECanbRegs
00006a00   _ECap1Regs
00006a20   _ECap2Regs
00006a40   _ECap3Regs
00006a60   _ECap4Regs
00006a80   _ECap5Regs
00006aa0   _ECap6Regs
0000be37   _EMUINT_ISR
0000bf4f   _EPWM1_INT_ISR
0000bf13   _EPWM1_TZINT_ISR
0000bf59   _EPWM2_INT_ISR
0000bf1d   _EPWM2_TZINT_ISR
0000bf63   _EPWM3_INT_ISR
0000bf27   _EPWM3_TZINT_ISR
0000bf6d   _EPWM4_INT_ISR
0000bf31   _EPWM4_TZINT_ISR
0000bf77   _EPWM5_INT_ISR
0000bf3b   _EPWM5_TZINT_ISR
0000bf81   _EPWM6_INT_ISR
0000bf45   _EPWM6_TZINT_ISR
00006800   _EPwm1Regs
00006840   _EPwm2Regs
00006880   _EPwm3Regs
000068c0   _EPwm4Regs
00006900   _EPwm5Regs
00006940   _EPwm6Regs
0000bfc7   _EQEP1_INT_ISR
0000bfd1   _EQEP2_INT_ISR
00006b00   _EQep1Regs
00006b40   _EQep2Regs
0000f6a3   _EepromSaveFlag
0000de4b   _EnableInterrupts
0000f6ad   _Flag_TripDataBackup
00000a80   _FlashRegs
0000f8ea   _Fr
0000f8f0   _Fr_Err
0000f8e6   _Fr_ErrInt
0000f8b0   _Fr_rat
0000f8f2   _Fr_ref
0000f8e8   _Fr_ref0
0000f7f4   _Freq_out
0000f760   _Freq_rat
0000f894   _Freq_ref
0000f84e   _Freq_set
0000f890   _Freq_slip
0000f6ee   _Freq_slip_rat
0000f8e0   _Fs
0000f8d2   _Fs1
0000f6fa   _Fs_B
0000f93c   _Fs_dq
0000f8a2   _Fs_rat
0000f8cc   _Fs_ref
0000f8d6   _Fs_ref0
0000f762   _GainUpdateTimer
0000ce06   _GetAnaMonitCount
0000dd29   _GetInputMark
0000d3a0   _GetTimeAndDateStr
0000a6a5   _GetTripInfo
00006f80   _GpioCtrlRegs
00006fc0   _GpioDataRegs
00006fe0   _GpioIntRegs
0000cb10   _HardwareParameterVerification
0000bae5   _I2CA_Init
0000bb54   _I2CA_ReadData
0000baf7   _I2CA_WriteData
0000c053   _I2CINT1A_ISR
0000c05d   _I2CINT2A_ISR
00007900   _I2caRegs
0000be4b   _ILLEGAL_ISR
0000be0f   _INT13_ISR
0000be19   _INT14_ISR
0000f876   _I_DS0
0000f87a   _I_DS0_0
0000f878   _I_DS_err
0000f720   _I_QS_rat
0000f732   _I_sense_value
0000f85e   _Im_Power
0000f8c6   _IncRef
0000f8b8   _IncScanRef
0000b3f5   _InitAdc
0000d918   _InitCpuTimers
0000c2d8   _InitEPwm_ACIM_Inverter
00008450   _InitFlash
0000b054   _InitGpio
0000cee7   _InitPeripheralClocks
0000de2c   _InitPieCtrl
0000de78   _InitPieVectTable
0000ce94   _InitPll
0000ce79   _InitSysCtrl
0000c41c   _InitWatchDog
0000b361   _InitXintf
0000f8fc   _Is_DQ
0000f92c   _Is_DQ_ErrInt
0000f8f8   _Is_DQ_max
0000f914   _Is_DQ_ref
0000f75e   _Is_Leq_Req
0000f784   _Is_Max_Coeff
0000f7fc   _Is_R
0000f7fe   _Is_S
0000f80c   _Is_T
0000f952   _Is_abc
0000f930   _Is_dq
0000f934   _Is_dq_ErrInt
0000f938   _Is_dq_ref
0000f7ea   _Is_mag
0000f7e6   _Is_mag_rms
0000f7e8   _Is_max
0000f856   _Is_rat
0000f724   _Jm
0000f96e   _Jm_ID_Te
0000f966   _Jm_ID_t
0000f95e   _Jm_ID_wr
0000f924   _Jm_SampleData
0000f6e8   _Ki_Is
0000f6f8   _Ki_wr
0000f6ea   _Kp_Is
0000f6fc   _Kp_Is_Coeff
0000f6ec   _Kp_wr
0000f8b2   _Kt
0000b847   _LPF1
0000b776   _LPF_COEFF_CAL
0000b7d3   _LPF_I
0000f84a   _LPF_Ia_feed
0000f848   _LPF_Ia_in
0000f83a   _LPF_Ia_out
0000f844   _LPF_Ib_feed
0000f842   _LPF_Ib_in
0000f846   _LPF_Ib_out
0000f756   _LPF_Is
0000f752   _LPF_Is_Square
0000f750   _LPF_Re_Power
0000f8de   _LPF_Te
0000b7aa   _LPF_V
0000f828   _LPF_Vdc_feed
0000f82c   _LPF_Vdc_in
0000f82a   _LPF_Vdc_out
0000f74e   _LPF_Vs_Square
0000c107   _LUF_ISR
0000c0fd   _LVF_ISR
0000f6f0   _Leq
0000f722   _Lm
0000f706   _Lm_div_Lr
0000f726   _Lr
0000f71c   _Lr_div_Lm
0000f72a   _Ls
0000c003   _MRINTA_ISR
0000bfef   _MRINTB_ISR
0000c00d   _MXINTA_ISR
0000bff9   _MXINTB_ISR
0000cd15   _MainPWM
0000f8d0   _Max_Trq_Coeff
00005000   _McbspaRegs
00005040   _McbspbRegs
0000dfbd   _MemCopy
0000f9c0   _MonitorMsg
0000ccca   _MotorControlProc
0000be41   _NMI_ISR
0000b866   _Nop
0000f6c8   _OverCurLimit
0000c111   _PIE_RESERVED
0000b869   _PI_Damp_Controller
0000f8aa   _P_pair
0000fd2b   _PartIdRegs
0000f88a   _Pf
00000ce0   _PieCtrlRegs
00000d00   _PieVectTable
0000f154   _PieVectTableInit
0000b8d0   _PowerOnReset
0000f88e   _Power_core
0000f89c   _Power_core_rat
0000f89e   _Power_gap
0000be2d   _RTOSINT_ISR
0000f764   _R_phase_I_sense_span
0000f768   _R_phase_I_sense_zero
0000f85c   _Re_Power
0000a7bf   _ReadTripString
0000d673   _RefFunc
0000f6e6   _Req
0000f728   _Rr
0000f736   _Rs
0000c07b   _SCIRXINTA_ISR
0000c08f   _SCIRXINTB_ISR
0000c067   _SCIRXINTC_ISR
0000c085   _SCITXINTA_ISR
0000c099   _SCITXINTB_ISR
0000c071   _SCITXINTC_ISR
0000becd   _SEQ1INT_ISR
0000bed7   _SEQ2INT_ISR
0000ccc8   _SL_SPEED_CNTL_Parameter
0000e05a   _SL_SpeedCntl_SFRF
0000ccc6   _SL_TORQUE_CNTL_Parameter
0000e05b   _SL_VectCntl_SFRF
0000bfdb   _SPIRXINTA_ISR
0000bfe5   _SPITXINTA_ISR
0000f718   _S_lin
0000f774   _S_phase_I_sense_span
0000f766   _S_phase_I_sense_zero
0000f714   _S_rat
0000aa69   _SaveDataProc
0000a7e3   _SaveTripDataToEeprom
00007050   _SciaRegs
00007750   _ScibRegs
00007770   _ScicRegs
0000ce82   _ServiceDog
0000b8cf   _SetSensorOffset
0000f884   _SinCosDeltaTheta
0000f8bc   _SinDeltaTheta
0000f7dc   _SinTheta
0000f8be   _SinTheta1
0000f88c   _Slip
0000f6c0   _SlipCoeff
0000ac8f   _SpaceVectorModulation
00007040   _SpiaRegs
00007010   _SysCtrlRegs
0000beff   _TINT0_ISR
0000fc6a   _T_d
0000f8e4   _Te
0000f8d8   _Te_max
0000f8a4   _Te_rat
0000f8da   _Te_ref
0000fc88   _TimeInput
0000f70a   _Tr
0000fa80   _TripInfo
0000fb00   _TripInfoNow
0000a559   _TripProc
0000f854   _Ts
0000beaf   _USER10_ISR
0000beb9   _USER11_ISR
0000bec3   _USER12_ISR
0000be55   _USER1_ISR
0000be5f   _USER2_ISR
0000be69   _USER3_ISR
0000be73   _USER4_ISR
0000be7d   _USER5_ISR
0000be87   _USER6_ISR
0000be91   _USER7_ISR
0000be9b   _USER8_ISR
0000bea5   _USER9_ISR
0000f918   _Us_dq
0000c43a   _VariableInitialization
0000f7f6   _Vdc
0000f860   _Vdc_calc_offset
0000f864   _Vdc_factor
0000f75a   _Vdc_fnd_data
0000f8dc   _Vo
0000af22   _VoltageEstimation
0000f754   _Vs_Coeff_Leq_Req
0000f91c   _Vs_DQ
0000f910   _Vs_DQ_comp
0000f900   _Vs_DQ_max
0000f90c   _Vs_DQ_ref
0000f904   _Vs_DQ_ref_P
0000f908   _Vs_DQ_ref_PI
0000f89a   _Vs_IR_comp
0000f80a   _Vs_R
0000f870   _Vs_R_calc_offset
0000f862   _Vs_R_factor
0000f806   _Vs_S
0000f86e   _Vs_S_calc_offset
0000f872   _Vs_S_factor
0000f808   _Vs_T
0000f86c   _Vs_T_calc_offset
0000f86a   _Vs_T_factor
0000f958   _Vs_abc
0000f940   _Vs_abc_ref
0000f928   _Vs_dq
0000f920   _Vs_dq_ref
0000f7f8   _Vs_max
0000f8e2   _Vs_max_FW
0000f85a   _Vs_rat
0000f892   _Vs_ref
0000bf09   _WAKEINT_ISR
0000d411   _WriteTimeToDS1307
0000a78a   _WriteTripString
0000bee1   _XINT1_ISR
0000beeb   _XINT2_ISR
0000c0cb   _XINT3_ISR
0000c0d5   _XINT4_ISR
0000c0df   _XINT5_ISR
0000c0e9   _XINT6_ISR
0000c0f3   _XINT7_ISR
00007070   _XIntruptRegs
00000b20   _XintfRegs
00004000   _ZONE0_BUF
00100000   _ZONE6_BUF
0020fc00   _ZONE7_BUF
00000300   __STACK_SIZE
00000300   __SYSMEM_SIZE
ffffffff   ___TI_pprof_out_hndl
ffffffff   ___TI_prof_var_size
ffffffff   ___TI_prof_var_start
ffffffff   ___binit__
00000000   ___bss__
ffffffff   ___c_args__
00008000   ___cinit__
00000000   ___data__
00000000   ___edata__
00000000   ___end__
0000e05c   ___etext__
0000debb   ___memcpy_ff
ffffffff   ___pinit__
00008500   ___text__
0000dfd4   __args_main
0000fc74   __cleanup_ptr
0000f542   __ctypes_
0000fc76   __dtors_ptr
0000fc7a   __lock
0000e038   __nop
00009ba0   __printfi
0000e034   __register_lock
0000e030   __register_unlock
00000400   __stack
0020fd00   __sys_memory
0000fc78   __unlock
0000dfa5   _abort
0000f6be   _accel_time1
0000f6d8   _accel_time2
0000f6b6   _adc_R_offset
0000f6af   _adc_S_offset
0000f980   _adc_result
0000f6b4   _adc_u_offset
0000f6b9   _adc_v_offset
0000f794   _analog_cmd_in_span1
0000f792   _analog_cmd_in_span2
0000f798   _analog_cmd_in_zero1
0000f790   _analog_cmd_in_zero2
0000b920   _analog_cmd_proc
0000b749   _analog_input_proc
0000b752   _analog_out_proc
0000f824   _analog_ref_a
0000f826   _analog_ref_b
0000dd79   _atoi
0000a9df   _backup_data_load
0000f70c   _btn_start_ref
0000dd33   _c_int00
0000c913   _calloc
0000a95e   _check_backup_data
0000bd47   _check_code_data
0000b753   _check_sensor_trip
0000c911   _chkheap
0000f68e   _cmdtest
0000f740   _code_LPF_cutoff_hz_I
0000f73c   _code_LPF_cutoff_hz_V
0000f7be   _code_Vdc_calc_high
0000f7bc   _code_Vdc_calc_low
0000f7c2   _code_Vdc_offseter
0000f7d0   _code_Vdc_scaler
0000f7ba   _code_Vs_R_calc_high
0000f7c8   _code_Vs_R_calc_low
0000f7ce   _code_Vs_R_offseter
0000f7cc   _code_Vs_R_scaler
0000f7b6   _code_Vs_S_calc_high
0000f7a8   _code_Vs_S_calc_low
0000f7ae   _code_Vs_S_offseter
0000f7ac   _code_Vs_S_scaler
0000f73e   _code_Vs_T_calc_high
0000f74c   _code_Vs_T_calc_low
0000f7b4   _code_Vs_T_offseter
0000f7b8   _code_Vs_T_scaler
0000f7c6   _code_adc_Vs_R_high
0000f7ca   _code_adc_Vs_R_low
0000f7a6   _code_adc_Vs_S_high
0000f7aa   _code_adc_Vs_S_low
0000f7b2   _code_adc_Vs_T_high
0000f7b0   _code_adc_Vs_T_low
0000f7c0   _code_adc_vdc_high
0000f7c4   _code_adc_vdc_low
0000f7a2   _code_dac_offset_ch1
0000f79a   _code_dac_offset_ch2
0000f78e   _code_dac_offset_ch3
0000f782   _code_dac_offset_ch4
0000f7a0   _code_dac_scale_ch1
0000f79e   _code_dac_scale_ch2
0000f79c   _code_dac_scale_ch3
0000f780   _code_dac_scale_ch4
0000f6a0   _code_dac_select_ch1
0000f697   _code_dac_select_ch2
0000f69a   _code_dac_select_ch3
0000f69c   _code_dac_select_ch4
0000fa40   _code_inform
0000f69e   _code_protect_IGBT2_off
0000f69f   _code_protect_IGBT_off
0000f6a9   _code_protect_Iadc_off
0000f69d   _code_protect_ex_trip_off
0000f69b   _code_protect_inhibit_on
0000f698   _code_protect_ov_off
0000f6a1   _code_protect_over_I_off
0000f699   _code_protect_uv_off
0000f6d2   _code_speed2
0000f6d4   _code_speed3
0000f7a4   _code_speed4
0000f796   _code_speed5
0000dbc6   _cos
0000dabe   _cpu_timer0_isr
0000d77a   _dac8412_out
0000f834   _dac_ch0_unit_count_value
0000f836   _dac_ch1_unit_count_value
0000f832   _dac_ch2_unit_count_value
0000f82e   _dac_ch3_unit_count_value
0000fb80   _dac_point
0000bcda   _data_over_proc
0000bc96   _data_under_proc
0000f6b8   _debug1
0000f6e2   _decel_time1
0000f6da   _decel_time2
0000f896   _del_Vs_comp
0000b8ec   _delay_msecs
0000fc6c   _delta_Tc
0000d261   _digital_input_proc
0000d2ff   _digital_out_proc
0000d29e   _digital_port_check
0000f6d6   _digital_speed2
0000f696   _disp_fnd_mode
0000d234   _driver_enable_proc
0000f78c   _e_thermal_level
0000fd2a   _errno
0000e054   _estim_Jm_pwm
0000e053   _estim_Ls_pwm
0000e051   _estim_ReqLeq_pwm
0000e052   _estim_Rs_pwm
0000dfa7   _exit
0000d22e   _fault_reset
0000c73a   _free
0000c8f3   _free_memory
0000f7e4   _frequency
0000f702   _func_flag
0000f682   _gAutoTuningSelect
0000f689   _gControlMode
0000f688   _gDeChargeFlag
0000f683   _gMachineState
0000f68a   _gPWMTripCode
0000f6a4   _gRunFlag
0000f68b   _gSciInFlag
0000f990   _gSciaRxBuf
0000f9a1   _gSciaTxBuf
0000f695   _gSciaTxEndFlag
0000f68c   _gSciaTxInPoint
0000f694   _gSciaTxOutPoint
0000f68d   _gStartInitFinish
0000fa00   _gStr1
0000f976   _gStr2
0000f6a5   _gTripFlag
0000f6a2   _gTripSaveFlag
0000f687   _gTripSavePoint
0000f712   _gdouSciCmdData
0000b986   _get_adc_offset
0000ba89   _get_adc_vdc_high
0000ba2d   _get_adc_vdc_low
00008520   _get_code_group0
000087df   _get_code_group1
0000887f   _get_code_group2
00008ab5   _get_code_group3
00008f3c   _get_code_group4
0000905c   _get_code_group5
00009291   _get_code_group6
000092a2   _get_code_group7
000092b3   _get_code_group8
0000a8c7   _get_code_information
0000b931   _get_command
0000bbbd   _get_eprom_address
0000f84c   _gfRunTime
0000f6b0   _giAdcAI_I1
0000f6ae   _giAdcAI_I2
0000f6b3   _giAdcAI_V1
0000f6b2   _giAdcAI_V2
0000f686   _giAdcAnaCmd
0000f6bb   _giAdcTemp
0000f684   _giAdcUphase
0000f685   _giAdcVdc
0000f692   _giAdcVphase
0000f680   _giSciCmdAddr
0000f681   _giSciCmdFunction
0000f6a6   _guiEpwmPeriodCount
0000f6f2   _gulStartCount
0000e059   _hyd_unit_control
0000e057   _hyd_unit_loop_proc
0000b913   _iGetAinCmd
0000f76c   _igbt_pwm_freq
0000f6b5   _init_charge_flag
0000ac15   _init_eprom_data
0000d24f   _input_acc_dec_byp_proc
0000d246   _input_acel_decel_switch_proc
0000d23a   _input_ai_local_remote_proc
0000d237   _input_ai_ref_active_proc
0000d252   _input_ext_fault_a_proc
0000d23d   _input_ext_fault_b_proc
0000d243   _input_mb_brake_state_proc
0000d240   _input_motor_select_proc
0000d24c   _input_ref_tunning_dec_proc
0000d249   _input_ref_tunning_inc_proc
0000f8c2   _inv_C_ce
0000f8ec   _inv_Fr
0000f8ee   _inv_Fr_ref
0000f75c   _inv_Freq_rat
0000f8d4   _inv_Fs
0000f6f4   _inv_Fs_B
0000f8ce   _inv_Fs_ref
0000f700   _inv_GM_Is
0000f6f6   _inv_GM_Is_square_minus_1
0000f71e   _inv_I_QS_rat
0000f7fa   _inv_Is_rat
0000f8ae   _inv_Kt
0000f6c4   _inv_Ls
0000f704   _inv_Ls_plus_sigma_Ls
0000f8ac   _inv_P_pair
0000f880   _inv_SinCosDeltaTheta
0000f8a0   _inv_Te_rat
0000f70e   _inv_Tr
0000f850   _inv_Ts
0000f830   _inv_code_dac_scale_ch1
0000f874   _inv_code_dac_scale_ch2
0000f866   _inv_code_dac_scale_ch3
0000f868   _inv_code_dac_scale_ch4
0000f8b4   _inv_motor_rat_hz
0000f7ee   _inv_motor_rate_hz
0000f6c2   _inv_sigma_Ls
0000f6dc   _inv_sigma_Tr
0000bd1e   _invalid_address_proc
0000f6de   _jog_speed
0000b80c   _linear_eq
0000bd96   _load_code2ram
00009d51   _load_scib_tx_mail_box
00009d2e   _load_scib_tx_mail_box_char
0000ddaa   _ltoa
0000c125   _main
0000c7ae   _malloc
0000c8d1   _max_free
0000dffd   _memccpy
0000e04a   _memset
0000f6d0   _min_vf_ref
0000c783   _minit
0000df71   _modf
0000dcf1   _monitor_proc
0000f6ac   _motor_ctrl_mode
0000f6aa   _motor_direction_change
0000f742   _motor_pole
0000f748   _motor_rate_current
0000f744   _motor_rate_effiency
0000f74a   _motor_rate_hz
0000f738   _motor_rate_power
0000f746   _motor_rate_rpm
0000f73a   _motor_rate_volt
0000f786   _over_I_time
0000f77e   _over_current_level
0000f78a   _over_speed_level
0000f77a   _over_volt_set
0000f83e   _pCoeff_I1
0000f840   _pCoeff_I2
0000f83c   _pCoeff_V1
0000f838   _pCoeff_V2
0000e055   _parameter_estimation
0000b8ff   _periodic_check
0000f788   _pre_charge_time
0000f80e   _prev_I_QS
0000f693   _protect_reg
0000f6a8   _ramp_func_mode
0000d766   _ramp_proc
0000bc54   _read_eprom_data
0000c809   _realloc
0000f852   _ref_time
0000f7da   _reference0
0000f7d6   _reference1
0000f7f2   _reference_in
0000f7d8   _reference_out
0000f6a7   _relay_flag
0000f7f0   _rpm
0000f6e0   _rpm_Coeff
0000f800   _rpm_err
0000f802   _rpm_m
0000f804   _rpm_ref
0000c11b   _rsvd_ISR
0000f6ab   _run_input_select
0000a9a8   _save_backup_data
00009dcc   _scibRxFifoIsr
00009d70   _scibTxFifoIsr
00009e4b   _scib_cmd_proc
00009cc1   _scib_fifo_init
0000fc83   _scib_rx_end_addr
0000fca6   _scib_rx_msg_box
0000f6ba   _scib_rx_msg_flag
0000fc84   _scib_rx_start_addr
0000fc80   _scib_tx_end_addr
00009d18   _scib_tx_msg
0000fcc0   _scib_tx_msg_box
0000fc81   _scib_tx_start_addr
0000df8b   _serial_com_proc
0000a93e   _set_code_default_double
0000a923   _set_code_default_int
0000d100   _set_dac_point
0000f87c   _sgn_I_QS
0000f946   _sgn_Is
0000f6ce   _sigma
0000f6cc   _sigma_Ls
0000f708   _sigma_Ls_div_1_plus_sigma
0000f6ca   _sigma_Tr
0000f6c6   _sigma_minus_1_div_sigma_Ls
0000dc27   _sin
0000dc86   _snprintf
00008500   _sqrt
0000e039   _strcpy
0000e01d   _strlen
0000dedc   _strncpy
0000cfc8   _strtod
0000f691   _terminal_input_state
0000d463   _test_run
0000f7e0   _theta
0000f8ca   _theta_m
0000f758   _time_t
0000a533   _trip_check
0000a310   _trip_recording
0000f730   _u_phase_I_sense_span
0000f734   _u_phase_I_sense_zero
0000b8e8   _ulGetNow_mSec
0000b8d1   _ulGetTime_mSec
0000f77c   _under_volt_set
0000f72e   _v_phase_I_sense_span
0000f72c   _v_phase_I_sense_zero
0000f76a   _vdc_sense_span
0000f778   _vdc_sense_zero
0000ca60   _vf_frequency_control
0000c92e   _vf_loop_control
0000ca67   _vf_simple_control
0000f822   _w_sl
0000f81e   _w_sl0
0000c408   _wakeint_isr
0000f7d4   _we
0000f7e2   _we0
0000f81a   _we_FW
0000f81c   _we_FW1
0000f7d2   _we_in
0000f7ec   _we_rat
0000f8a8   _wm_rat
0000f71a   _wn_wr
0000f6fe   _wp_Is
0000f716   _wp_Is_Coeff
0000f818   _wr
0000f898   _wr_Cycle
0000f690   _wr_CycleIndex
0000f820   _wr_ErrInt
0000f6e4   _wr_FilterPole
0000f6b7   _wr_ctrl_index
0000f812   _wr_err
0000f858   _wr_m
0000f816   _wr_m0
0000f8a6   _wr_rat
0000f814   _wr_ref
0000f810   _wr_ref0
0000bc1f   _write_code_2_eeprom
0000f6b1   _xcon_data
ffffffff   binit
00008000   cinit
00000000   code_start
00000000   edata
00000000   end
0000e05c   etext
ffffffff   pinit


GLOBAL SYMBOLS: SORTED BY Symbol Address 

address    name
--------   ----
00000000   .bss
00000000   .data
00000000   ___bss__
00000000   ___data__
00000000   ___edata__
00000000   ___end__
00000000   code_start
00000000   edata
00000000   end
00000300   __STACK_SIZE
00000300   __SYSMEM_SIZE
00000400   __stack
00000880   _DevEmuRegs
00000a80   _FlashRegs
00000ae0   _CsmRegs
00000b00   _AdcMirror
00000b20   _XintfRegs
00000c00   _CpuTimer0Regs
00000c08   _CpuTimer1Regs
00000c10   _CpuTimer2Regs
00000ce0   _PieCtrlRegs
00000d00   _PieVectTable
00001000   _DmaRegs
00004000   _ZONE0_BUF
00005000   _McbspaRegs
00005040   _McbspbRegs
00006000   _ECanaRegs
00006040   _ECanaLAMRegs
00006080   _ECanaMOTSRegs
000060c0   _ECanaMOTORegs
00006100   _ECanaMboxes
00006200   _ECanbRegs
00006240   _ECanbLAMRegs
00006280   _ECanbMOTSRegs
000062c0   _ECanbMOTORegs
00006300   _ECanbMboxes
00006800   _EPwm1Regs
00006840   _EPwm2Regs
00006880   _EPwm3Regs
000068c0   _EPwm4Regs
00006900   _EPwm5Regs
00006940   _EPwm6Regs
00006a00   _ECap1Regs
00006a20   _ECap2Regs
00006a40   _ECap3Regs
00006a60   _ECap4Regs
00006a80   _ECap5Regs
00006aa0   _ECap6Regs
00006b00   _EQep1Regs
00006b40   _EQep2Regs
00006f80   _GpioCtrlRegs
00006fc0   _GpioDataRegs
00006fe0   _GpioIntRegs
00007010   _SysCtrlRegs
00007040   _SpiaRegs
00007050   _SciaRegs
00007070   _XIntruptRegs
00007100   _AdcRegs
00007750   _ScibRegs
00007770   _ScicRegs
00007900   _I2caRegs
00008000   ___cinit__
00008000   cinit
00008450   _InitFlash
00008473   _DSP28x_usDelay
00008500   .text
00008500   ___text__
00008500   _sqrt
00008520   _get_code_group0
000087df   _get_code_group1
0000887f   _get_code_group2
00008ab5   _get_code_group3
00008f3c   _get_code_group4
0000905c   _get_code_group5
00009291   _get_code_group6
000092a2   _get_code_group7
000092b3   _get_code_group8
00009ba0   __printfi
00009cc1   _scib_fifo_init
00009d18   _scib_tx_msg
00009d2e   _load_scib_tx_mail_box_char
00009d51   _load_scib_tx_mail_box
00009d70   _scibTxFifoIsr
00009dcc   _scibRxFifoIsr
00009e4b   _scib_cmd_proc
0000a310   _trip_recording
0000a342   _CheckOverCurrent
0000a3f6   _CheckOverVolt
0000a425   _CheckUndeVolt
0000a456   _CheckOverSpeed
0000a489   _CheckIGBTFault
0000a4cf   _CheckIGBTFault2
0000a515   _CheckOverHeat
0000a533   _trip_check
0000a559   _TripProc
0000a6a5   _GetTripInfo
0000a78a   _WriteTripString
0000a7bf   _ReadTripString
0000a7e3   _SaveTripDataToEeprom
0000a856   _ClearTripDataToEeprom
0000a8c7   _get_code_information
0000a923   _set_code_default_int
0000a93e   _set_code_default_double
0000a95e   _check_backup_data
0000a9a8   _save_backup_data
0000a9df   _backup_data_load
0000aa30   _CheckSum
0000aa32   _CheckSum_bk
0000aa69   _SaveDataProc
0000ac15   _init_eprom_data
0000ac8f   _SpaceVectorModulation
0000af22   _VoltageEstimation
0000b054   _InitGpio
0000b361   _InitXintf
0000b3f5   _InitAdc
0000b459   _Adc_Isr
0000b749   _analog_input_proc
0000b752   _analog_out_proc
0000b753   _check_sensor_trip
0000b776   _LPF_COEFF_CAL
0000b7aa   _LPF_V
0000b7d3   _LPF_I
0000b80c   _linear_eq
0000b847   _LPF1
0000b866   _Nop
0000b869   _PI_Damp_Controller
0000b8cf   _SetSensorOffset
0000b8d0   _PowerOnReset
0000b8d1   _ulGetTime_mSec
0000b8e8   _ulGetNow_mSec
0000b8ec   _delay_msecs
0000b8ff   _periodic_check
0000b913   _iGetAinCmd
0000b920   _analog_cmd_proc
0000b931   _get_command
0000b986   _get_adc_offset
0000ba2d   _get_adc_vdc_low
0000ba89   _get_adc_vdc_high
0000bae5   _I2CA_Init
0000baf7   _I2CA_WriteData
0000bb54   _I2CA_ReadData
0000bbbd   _get_eprom_address
0000bc1f   _write_code_2_eeprom
0000bc54   _read_eprom_data
0000bc96   _data_under_proc
0000bcda   _data_over_proc
0000bd1e   _invalid_address_proc
0000bd47   _check_code_data
0000bd96   _load_code2ram
0000be0f   _INT13_ISR
0000be19   _INT14_ISR
0000be23   _DATALOG_ISR
0000be2d   _RTOSINT_ISR
0000be37   _EMUINT_ISR
0000be41   _NMI_ISR
0000be4b   _ILLEGAL_ISR
0000be55   _USER1_ISR
0000be5f   _USER2_ISR
0000be69   _USER3_ISR
0000be73   _USER4_ISR
0000be7d   _USER5_ISR
0000be87   _USER6_ISR
0000be91   _USER7_ISR
0000be9b   _USER8_ISR
0000bea5   _USER9_ISR
0000beaf   _USER10_ISR
0000beb9   _USER11_ISR
0000bec3   _USER12_ISR
0000becd   _SEQ1INT_ISR
0000bed7   _SEQ2INT_ISR
0000bee1   _XINT1_ISR
0000beeb   _XINT2_ISR
0000bef5   _ADCINT_ISR
0000beff   _TINT0_ISR
0000bf09   _WAKEINT_ISR
0000bf13   _EPWM1_TZINT_ISR
0000bf1d   _EPWM2_TZINT_ISR
0000bf27   _EPWM3_TZINT_ISR
0000bf31   _EPWM4_TZINT_ISR
0000bf3b   _EPWM5_TZINT_ISR
0000bf45   _EPWM6_TZINT_ISR
0000bf4f   _EPWM1_INT_ISR
0000bf59   _EPWM2_INT_ISR
0000bf63   _EPWM3_INT_ISR
0000bf6d   _EPWM4_INT_ISR
0000bf77   _EPWM5_INT_ISR
0000bf81   _EPWM6_INT_ISR
0000bf8b   _ECAP1_INT_ISR
0000bf95   _ECAP2_INT_ISR
0000bf9f   _ECAP3_INT_ISR
0000bfa9   _ECAP4_INT_ISR
0000bfb3   _ECAP5_INT_ISR
0000bfbd   _ECAP6_INT_ISR
0000bfc7   _EQEP1_INT_ISR
0000bfd1   _EQEP2_INT_ISR
0000bfdb   _SPIRXINTA_ISR
0000bfe5   _SPITXINTA_ISR
0000bfef   _MRINTB_ISR
0000bff9   _MXINTB_ISR
0000c003   _MRINTA_ISR
0000c00d   _MXINTA_ISR
0000c017   _DINTCH1_ISR
0000c021   _DINTCH2_ISR
0000c02b   _DINTCH3_ISR
0000c035   _DINTCH4_ISR
0000c03f   _DINTCH5_ISR
0000c049   _DINTCH6_ISR
0000c053   _I2CINT1A_ISR
0000c05d   _I2CINT2A_ISR
0000c067   _SCIRXINTC_ISR
0000c071   _SCITXINTC_ISR
0000c07b   _SCIRXINTA_ISR
0000c085   _SCITXINTA_ISR
0000c08f   _SCIRXINTB_ISR
0000c099   _SCITXINTB_ISR
0000c0a3   _ECAN0INTA_ISR
0000c0ad   _ECAN1INTA_ISR
0000c0b7   _ECAN0INTB_ISR
0000c0c1   _ECAN1INTB_ISR
0000c0cb   _XINT3_ISR
0000c0d5   _XINT4_ISR
0000c0df   _XINT5_ISR
0000c0e9   _XINT6_ISR
0000c0f3   _XINT7_ISR
0000c0fd   _LVF_ISR
0000c107   _LUF_ISR
0000c111   _PIE_RESERVED
0000c11b   _rsvd_ISR
0000c125   _main
0000c2d8   _InitEPwm_ACIM_Inverter
0000c408   _wakeint_isr
0000c41c   _InitWatchDog
0000c43a   _VariableInitialization
0000c73a   _free
0000c783   _minit
0000c7ae   _malloc
0000c809   _realloc
0000c8d1   _max_free
0000c8f3   _free_memory
0000c911   _chkheap
0000c913   _calloc
0000c92e   _vf_loop_control
0000ca60   _vf_frequency_control
0000ca67   _vf_simple_control
0000cb10   _HardwareParameterVerification
0000ccc4   _COMMON_VECT_CNTL_ParameterVerification
0000ccc6   _SL_TORQUE_CNTL_Parameter
0000ccc8   _SL_SPEED_CNTL_Parameter
0000ccca   _MotorControlProc
0000cd15   _MainPWM
0000ce06   _GetAnaMonitCount
0000ce79   _InitSysCtrl
0000ce82   _ServiceDog
0000ce8c   _DisableDog
0000ce94   _InitPll
0000cee7   _InitPeripheralClocks
0000cf97   _CsmUnlock
0000cfc8   _strtod
0000d100   _set_dac_point
0000d22e   _fault_reset
0000d234   _driver_enable_proc
0000d237   _input_ai_ref_active_proc
0000d23a   _input_ai_local_remote_proc
0000d23d   _input_ext_fault_b_proc
0000d240   _input_motor_select_proc
0000d243   _input_mb_brake_state_proc
0000d246   _input_acel_decel_switch_proc
0000d249   _input_ref_tunning_inc_proc
0000d24c   _input_ref_tunning_dec_proc
0000d24f   _input_acc_dec_byp_proc
0000d252   _input_ext_fault_a_proc
0000d261   _digital_input_proc
0000d29e   _digital_port_check
0000d2ff   _digital_out_proc
0000d34b   _DS1307WriteData
0000d374   _DS1307ReadData
0000d3a0   _GetTimeAndDateStr
0000d411   _WriteTimeToDS1307
0000d463   _test_run
0000d56c   LL$$DIV
0000d5a8   LL$$MOD
0000d5e2   ULL$$DIV
0000d611   ULL$$MOD
0000d673   _RefFunc
0000d766   _ramp_proc
0000d77a   _dac8412_out
0000d87c   FD$$ADD
0000d918   _InitCpuTimers
0000d964   _ConfigCpuTimer
0000d9ab   FD$$DIV
0000da36   FS$$DIV
0000dabe   _cpu_timer0_isr
0000db43   FD$$MPY
0000dbc6   _cos
0000dc27   _sin
0000dc86   _snprintf
0000dcf1   _monitor_proc
0000dd29   _GetInputMark
0000dd33   _c_int00
0000dd79   _atoi
0000ddaa   _ltoa
0000ddd8   L$$DIV
0000dde7   L$$MOD
0000ddf5   UL$$DIV
0000ddfc   UL$$MOD
0000de02   FD$$CMP
0000de2c   _InitPieCtrl
0000de4b   _EnableInterrupts
0000de56   I$$DIV
0000de67   I$$MOD
0000de78   _InitPieVectTable
0000de9a   FD$$TOI
0000debb   ___memcpy_ff
0000dedc   _strncpy
0000defc   FD$$TOL
0000df1b   LL$$CMP
0000df2d   ULL$$CMP
0000df39   L$$TOFD
0000df55   FS$$TOFD
0000df71   _modf
0000df8b   _serial_com_proc
0000dfa5   C$$EXIT
0000dfa5   _abort
0000dfa7   _exit
0000dfbd   _MemCopy
0000dfd4   __args_main
0000dfe9   LL$$MPY
0000dffd   _memccpy
0000e00f   FD$$SUB
0000e01d   _strlen
0000e027   FD$$NEG
0000e030   __register_unlock
0000e034   __register_lock
0000e038   __nop
0000e039   _strcpy
0000e04a   _memset
0000e051   _estim_ReqLeq_pwm
0000e052   _estim_Rs_pwm
0000e053   _estim_Ls_pwm
0000e054   _estim_Jm_pwm
0000e055   _parameter_estimation
0000e057   _hyd_unit_loop_proc
0000e059   _hyd_unit_control
0000e05a   _SL_SpeedCntl_SFRF
0000e05b   _SL_VectCntl_SFRF
0000e05c   ___etext__
0000e05c   etext
0000f154   _PieVectTableInit
0000f542   __ctypes_
0000f680   _giSciCmdAddr
0000f681   _giSciCmdFunction
0000f682   _gAutoTuningSelect
0000f683   _gMachineState
0000f684   _giAdcUphase
0000f685   _giAdcVdc
0000f686   _giAdcAnaCmd
0000f687   _gTripSavePoint
0000f688   _gDeChargeFlag
0000f689   _gControlMode
0000f68a   _gPWMTripCode
0000f68b   _gSciInFlag
0000f68c   _gSciaTxInPoint
0000f68d   _gStartInitFinish
0000f68e   _cmdtest
0000f68f   _AutoTuningFlag
0000f690   _wr_CycleIndex
0000f691   _terminal_input_state
0000f692   _giAdcVphase
0000f693   _protect_reg
0000f694   _gSciaTxOutPoint
0000f695   _gSciaTxEndFlag
0000f696   _disp_fnd_mode
0000f697   _code_dac_select_ch2
0000f698   _code_protect_ov_off
0000f699   _code_protect_uv_off
0000f69a   _code_dac_select_ch3
0000f69b   _code_protect_inhibit_on
0000f69c   _code_dac_select_ch4
0000f69d   _code_protect_ex_trip_off
0000f69e   _code_protect_IGBT2_off
0000f69f   _code_protect_IGBT_off
0000f6a0   _code_dac_select_ch1
0000f6a1   _code_protect_over_I_off
0000f6a2   _gTripSaveFlag
0000f6a3   _EepromSaveFlag
0000f6a4   _gRunFlag
0000f6a5   _gTripFlag
0000f6a6   _guiEpwmPeriodCount
0000f6a7   _relay_flag
0000f6a8   _ramp_func_mode
0000f6a9   _code_protect_Iadc_off
0000f6aa   _motor_direction_change
0000f6ab   _run_input_select
0000f6ac   _motor_ctrl_mode
0000f6ad   _Flag_TripDataBackup
0000f6ae   _giAdcAI_I2
0000f6af   _adc_S_offset
0000f6b0   _giAdcAI_I1
0000f6b1   _xcon_data
0000f6b2   _giAdcAI_V2
0000f6b3   _giAdcAI_V1
0000f6b4   _adc_u_offset
0000f6b5   _init_charge_flag
0000f6b6   _adc_R_offset
0000f6b7   _wr_ctrl_index
0000f6b8   _debug1
0000f6b9   _adc_v_offset
0000f6ba   _scib_rx_msg_flag
0000f6bb   _giAdcTemp
0000f6be   _accel_time1
0000f6c0   _SlipCoeff
0000f6c2   _inv_sigma_Ls
0000f6c4   _inv_Ls
0000f6c6   _sigma_minus_1_div_sigma_Ls
0000f6c8   _OverCurLimit
0000f6ca   _sigma_Tr
0000f6cc   _sigma_Ls
0000f6ce   _sigma
0000f6d0   _min_vf_ref
0000f6d2   _code_speed2
0000f6d4   _code_speed3
0000f6d6   _digital_speed2
0000f6d8   _accel_time2
0000f6da   _decel_time2
0000f6dc   _inv_sigma_Tr
0000f6de   _jog_speed
0000f6e0   _rpm_Coeff
0000f6e2   _decel_time1
0000f6e4   _wr_FilterPole
0000f6e6   _Req
0000f6e8   _Ki_Is
0000f6ea   _Kp_Is
0000f6ec   _Kp_wr
0000f6ee   _Freq_slip_rat
0000f6f0   _Leq
0000f6f2   _gulStartCount
0000f6f4   _inv_Fs_B
0000f6f6   _inv_GM_Is_square_minus_1
0000f6f8   _Ki_wr
0000f6fa   _Fs_B
0000f6fc   _Kp_Is_Coeff
0000f6fe   _wp_Is
0000f700   _inv_GM_Is
0000f702   _func_flag
0000f704   _inv_Ls_plus_sigma_Ls
0000f706   _Lm_div_Lr
0000f708   _sigma_Ls_div_1_plus_sigma
0000f70a   _Tr
0000f70c   _btn_start_ref
0000f70e   _inv_Tr
0000f710   _AnaCmdReference
0000f712   _gdouSciCmdData
0000f714   _S_rat
0000f716   _wp_Is_Coeff
0000f718   _S_lin
0000f71a   _wn_wr
0000f71c   _Lr_div_Lm
0000f71e   _inv_I_QS_rat
0000f720   _I_QS_rat
0000f722   _Lm
0000f724   _Jm
0000f726   _Lr
0000f728   _Rr
0000f72a   _Ls
0000f72c   _v_phase_I_sense_zero
0000f72e   _v_phase_I_sense_span
0000f730   _u_phase_I_sense_span
0000f732   _I_sense_value
0000f734   _u_phase_I_sense_zero
0000f736   _Rs
0000f738   _motor_rate_power
0000f73a   _motor_rate_volt
0000f73c   _code_LPF_cutoff_hz_V
0000f73e   _code_Vs_T_calc_high
0000f740   _code_LPF_cutoff_hz_I
0000f742   _motor_pole
0000f744   _motor_rate_effiency
0000f746   _motor_rate_rpm
0000f748   _motor_rate_current
0000f74a   _motor_rate_hz
0000f74c   _code_Vs_T_calc_low
0000f74e   _LPF_Vs_Square
0000f750   _LPF_Re_Power
0000f752   _LPF_Is_Square
0000f754   _Vs_Coeff_Leq_Req
0000f756   _LPF_Is
0000f758   _time_t
0000f75a   _Vdc_fnd_data
0000f75c   _inv_Freq_rat
0000f75e   _Is_Leq_Req
0000f760   _Freq_rat
0000f762   _GainUpdateTimer
0000f764   _R_phase_I_sense_span
0000f766   _S_phase_I_sense_zero
0000f768   _R_phase_I_sense_zero
0000f76a   _vdc_sense_span
0000f76c   _igbt_pwm_freq
0000f76e   _Data_Load
0000f770   _Data_Init
0000f772   _Data_Backup
0000f774   _S_phase_I_sense_span
0000f776   _Data_Check
0000f778   _vdc_sense_zero
0000f77a   _over_volt_set
0000f77c   _under_volt_set
0000f77e   _over_current_level
0000f780   _code_dac_scale_ch4
0000f782   _code_dac_offset_ch4
0000f784   _Is_Max_Coeff
0000f786   _over_I_time
0000f788   _pre_charge_time
0000f78a   _over_speed_level
0000f78c   _e_thermal_level
0000f78e   _code_dac_offset_ch3
0000f790   _analog_cmd_in_zero2
0000f792   _analog_cmd_in_span2
0000f794   _analog_cmd_in_span1
0000f796   _code_speed5
0000f798   _analog_cmd_in_zero1
0000f79a   _code_dac_offset_ch2
0000f79c   _code_dac_scale_ch3
0000f79e   _code_dac_scale_ch2
0000f7a0   _code_dac_scale_ch1
0000f7a2   _code_dac_offset_ch1
0000f7a4   _code_speed4
0000f7a6   _code_adc_Vs_S_high
0000f7a8   _code_Vs_S_calc_low
0000f7aa   _code_adc_Vs_S_low
0000f7ac   _code_Vs_S_scaler
0000f7ae   _code_Vs_S_offseter
0000f7b0   _code_adc_Vs_T_low
0000f7b2   _code_adc_Vs_T_high
0000f7b4   _code_Vs_T_offseter
0000f7b6   _code_Vs_S_calc_high
0000f7b8   _code_Vs_T_scaler
0000f7ba   _code_Vs_R_calc_high
0000f7bc   _code_Vdc_calc_low
0000f7be   _code_Vdc_calc_high
0000f7c0   _code_adc_vdc_high
0000f7c2   _code_Vdc_offseter
0000f7c4   _code_adc_vdc_low
0000f7c6   _code_adc_Vs_R_high
0000f7c8   _code_Vs_R_calc_low
0000f7ca   _code_adc_Vs_R_low
0000f7cc   _code_Vs_R_scaler
0000f7ce   _code_Vs_R_offseter
0000f7d0   _code_Vdc_scaler
0000f7d2   _we_in
0000f7d4   _we
0000f7d6   _reference1
0000f7d8   _reference_out
0000f7da   _reference0
0000f7dc   _SinTheta
0000f7de   _CosTheta
0000f7e0   _theta
0000f7e2   _we0
0000f7e4   _frequency
0000f7e6   _Is_mag_rms
0000f7e8   _Is_max
0000f7ea   _Is_mag
0000f7ec   _we_rat
0000f7ee   _inv_motor_rate_hz
0000f7f0   _rpm
0000f7f2   _reference_in
0000f7f4   _Freq_out
0000f7f6   _Vdc
0000f7f8   _Vs_max
0000f7fa   _inv_Is_rat
0000f7fc   _Is_R
0000f7fe   _Is_S
0000f800   _rpm_err
0000f802   _rpm_m
0000f804   _rpm_ref
0000f806   _Vs_S
0000f808   _Vs_T
0000f80a   _Vs_R
0000f80c   _Is_T
0000f80e   _prev_I_QS
0000f810   _wr_ref0
0000f812   _wr_err
0000f814   _wr_ref
0000f816   _wr_m0
0000f818   _wr
0000f81a   _we_FW
0000f81c   _we_FW1
0000f81e   _w_sl0
0000f820   _wr_ErrInt
0000f822   _w_sl
0000f824   _analog_ref_a
0000f826   _analog_ref_b
0000f828   _LPF_Vdc_feed
0000f82a   _LPF_Vdc_out
0000f82c   _LPF_Vdc_in
0000f82e   _dac_ch3_unit_count_value
0000f830   _inv_code_dac_scale_ch1
0000f832   _dac_ch2_unit_count_value
0000f834   _dac_ch0_unit_count_value
0000f836   _dac_ch1_unit_count_value
0000f838   _pCoeff_V2
0000f83a   _LPF_Ia_out
0000f83c   _pCoeff_V1
0000f83e   _pCoeff_I1
0000f840   _pCoeff_I2
0000f842   _LPF_Ib_in
0000f844   _LPF_Ib_feed
0000f846   _LPF_Ib_out
0000f848   _LPF_Ia_in
0000f84a   _LPF_Ia_feed
0000f84c   _gfRunTime
0000f84e   _Freq_set
0000f850   _inv_Ts
0000f852   _ref_time
0000f854   _Ts
0000f856   _Is_rat
0000f858   _wr_m
0000f85a   _Vs_rat
0000f85c   _Re_Power
0000f85e   _Im_Power
0000f860   _Vdc_calc_offset
0000f862   _Vs_R_factor
0000f864   _Vdc_factor
0000f866   _inv_code_dac_scale_ch3
0000f868   _inv_code_dac_scale_ch4
0000f86a   _Vs_T_factor
0000f86c   _Vs_T_calc_offset
0000f86e   _Vs_S_calc_offset
0000f870   _Vs_R_calc_offset
0000f872   _Vs_S_factor
0000f874   _inv_code_dac_scale_ch2
0000f876   _I_DS0
0000f878   _I_DS_err
0000f87a   _I_DS0_0
0000f87c   _sgn_I_QS
0000f87e   _Delta_wr
0000f880   _inv_SinCosDeltaTheta
0000f882   _CosDeltaTheta
0000f884   _SinCosDeltaTheta
0000f886   _DeltaLambda
0000f888   _DeltaTheta
0000f88a   _Pf
0000f88c   _Slip
0000f88e   _Power_core
0000f890   _Freq_slip
0000f892   _Vs_ref
0000f894   _Freq_ref
0000f896   _del_Vs_comp
0000f898   _wr_Cycle
0000f89a   _Vs_IR_comp
0000f89c   _Power_core_rat
0000f89e   _Power_gap
0000f8a0   _inv_Te_rat
0000f8a2   _Fs_rat
0000f8a4   _Te_rat
0000f8a6   _wr_rat
0000f8a8   _wm_rat
0000f8aa   _P_pair
0000f8ac   _inv_P_pair
0000f8ae   _inv_Kt
0000f8b0   _Fr_rat
0000f8b2   _Kt
0000f8b4   _inv_motor_rat_hz
0000f8b6   _Delta_wr_Filter_Pole
0000f8b8   _IncScanRef
0000f8ba   _CosTheta1
0000f8bc   _SinDeltaTheta
0000f8be   _SinTheta1
0000f8c0   _C_ce
0000f8c2   _inv_C_ce
0000f8c4   _C_ce_nF
0000f8c6   _IncRef
0000f8c8   _DecRef
0000f8ca   _theta_m
0000f8cc   _Fs_ref
0000f8ce   _inv_Fs_ref
0000f8d0   _Max_Trq_Coeff
0000f8d2   _Fs1
0000f8d4   _inv_Fs
0000f8d6   _Fs_ref0
0000f8d8   _Te_max
0000f8da   _Te_ref
0000f8dc   _Vo
0000f8de   _LPF_Te
0000f8e0   _Fs
0000f8e2   _Vs_max_FW
0000f8e4   _Te
0000f8e6   _Fr_ErrInt
0000f8e8   _Fr_ref0
0000f8ea   _Fr
0000f8ec   _inv_Fr
0000f8ee   _inv_Fr_ref
0000f8f0   _Fr_Err
0000f8f2   _Fr_ref
0000f8f4   _DutyCount
0000f8f8   _Is_DQ_max
0000f8fc   _Is_DQ
0000f900   _Vs_DQ_max
0000f904   _Vs_DQ_ref_P
0000f908   _Vs_DQ_ref_PI
0000f90c   _Vs_DQ_ref
0000f910   _Vs_DQ_comp
0000f914   _Is_DQ_ref
0000f918   _Us_dq
0000f91c   _Vs_DQ
0000f920   _Vs_dq_ref
0000f924   _Jm_SampleData
0000f928   _Vs_dq
0000f92c   _Is_DQ_ErrInt
0000f930   _Is_dq
0000f934   _Is_dq_ErrInt
0000f938   _Is_dq_ref
0000f93c   _Fs_dq
0000f940   _Vs_abc_ref
0000f946   _sgn_Is
0000f94c   _DutyRatio
0000f952   _Is_abc
0000f958   _Vs_abc
0000f95e   _Jm_ID_wr
0000f966   _Jm_ID_t
0000f96e   _Jm_ID_Te
0000f976   _gStr2
0000f980   _adc_result
0000f990   _gSciaRxBuf
0000f9a1   _gSciaTxBuf
0000f9c0   _MonitorMsg
0000fa00   _gStr1
0000fa40   _code_inform
0000fa80   _TripInfo
0000fb00   _TripInfoNow
0000fb80   _dac_point
0000fc48   _CpuTimer1
0000fc50   _CpuTimer2
0000fc58   _CpuTimer0
0000fc68   _Dd
0000fc6a   _T_d
0000fc6c   _delta_Tc
0000fc74   __cleanup_ptr
0000fc76   __dtors_ptr
0000fc78   __unlock
0000fc7a   __lock
0000fc80   _scib_tx_end_addr
0000fc81   _scib_tx_start_addr
0000fc83   _scib_rx_end_addr
0000fc84   _scib_rx_start_addr
0000fc88   _TimeInput
0000fca6   _scib_rx_msg_box
0000fcc0   _scib_tx_msg_box
0000fd2a   _errno
0000fd2b   _PartIdRegs
00100000   _ZONE6_BUF
0020fc00   _ZONE7_BUF
0020fd00   __sys_memory
0033fff8   _CsmPwl
00380080   _ADC_cal
ffffffff   ___TI_pprof_out_hndl
ffffffff   ___TI_prof_var_size
ffffffff   ___TI_prof_var_start
ffffffff   ___binit__
ffffffff   ___c_args__
ffffffff   ___pinit__
ffffffff   binit
ffffffff   pinit

[761 symbols]
