******************************************************************************
        TMS320C2000 COFF Linker PC v5.0.1                      
******************************************************************************
>> Linked Thu Oct 13 13:09:32 2011

OUTPUT FILE NAME:   <./Debug/pcbdebug_rom.out>
ENTRY POINT SYMBOL: "_c_int00"  address: 0032091f


MEMORY CONFIGURATION

         name            origin    length      used     unused   attr    fill
----------------------  --------  ---------  --------  --------  ----  --------
PAGE 0:
  ZONE0                 00004000   00001000  00000100  00000f00  RWIX
  RAML0                 00008000   00001000  00000027  00000fd9  RWIX
  RAML1                 00009000   00001000  00000000  00001000  RWIX
  RAML2                 0000a000   00001000  00000000  00001000  RWIX
  RAML3                 0000b000   00001000  00000000  00001000  RWIX
  ZONE6                 00100000   00100000  00010000  000f0000  RWIX
  ZONE7A                00200000   0000fc00  00000100  0000fb00  RWIX
  FLASHH                00300000   00008000  00000000  00008000  RWIX
  FLASHG                00308000   00008000  00000000  00008000  RWIX
  FLASHF                00310000   00008000  00000000  00008000  RWIX
  FLASHD                00318000   00010000  00008c64  0000739c  RWIX
  FLASHC                00328000   00008000  00000000  00008000  RWIX
  FLASHA                00338000   00007f80  00001f49  00006037  RWIX
  CSM_RSVD              0033ff80   00000076  00000000  00000076  RWIX
  BEGIN                 0033fff6   00000002  00000002  00000000  RWIX
  CSM_PWL               0033fff8   00000008  00000000  00000008  RWIX
  ADC_CAL               00380080   00000009  00000007  00000002  RWIX
  OTP                   00380400   00000400  00000000  00000400  RWIX
  IQTABLES              003fe000   00000b50  00000000  00000b50  RWIX
  IQTABLES2             003feb50   0000008c  00000000  0000008c  RWIX
  FPUTABLES             003febdc   000006a0  00000000  000006a0  RWIX
  ROM                   003ff27c   00000d44  00000000  00000d44  RWIX
  RESET                 003fffc0   00000002  00000000  00000002  RWIX
  VECTORS               003fffc2   0000003e  00000000  0000003e  RWIX

PAGE 1:
  BOOT_RSVD             00000000   00000050  00000000  00000050  RWIX
  RAMM0                 00000050   000003b0  00000300  000000b0  RWIX
  RAMM1                 00000400   00000400  00000300  00000100  RWIX
  DEV_EMU               00000880   00000180  000000d0  000000b0  RWIX
  FLASH_REGS            00000a80   00000060  00000008  00000058  RWIX
  CSM                   00000ae0   00000010  00000010  00000000  RWIX
  ADC_MIRROR            00000b00   00000010  00000010  00000000  RWIX
  XINTF                 00000b20   00000020  0000001e  00000002  RWIX
  CPU_TIMER0            00000c00   00000008  00000008  00000000  RWIX
  CPU_TIMER1            00000c08   00000008  00000008  00000000  RWIX
  CPU_TIMER2            00000c10   00000008  00000008  00000000  RWIX
  PIE_CTRL              00000ce0   00000020  0000001a  00000006  RWIX
  PIE_VECT              00000d00   00000100  00000100  00000000  RWIX
  DMA                   00001000   00000200  000000e0  00000120  RWIX
  MCBSPA                00005000   00000040  00000025  0000001b  RWIX
  MCBSPB                00005040   00000040  00000025  0000001b  RWIX
  ECANA                 00006000   00000040  00000034  0000000c  RWIX
  ECANA_LAM             00006040   00000040  00000040  00000000  RWIX
  ECANA_MOTS            00006080   00000040  00000040  00000000  RWIX
  ECANA_MOTO            000060c0   00000040  00000040  00000000  RWIX
  ECANA_MBOX            00006100   00000100  00000100  00000000  RWIX
  ECANB                 00006200   00000040  00000034  0000000c  RWIX
  ECANB_LAM             00006240   00000040  00000040  00000000  RWIX
  ECANB_MOTS            00006280   00000040  00000040  00000000  RWIX
  ECANB_MOTO            000062c0   00000040  00000040  00000000  RWIX
  ECANB_MBOX            00006300   00000100  00000100  00000000  RWIX
  EPWM1                 00006800   00000022  00000022  00000000  RWIX
  EPWM2                 00006840   00000022  00000022  00000000  RWIX
  EPWM3                 00006880   00000022  00000022  00000000  RWIX
  EPWM4                 000068c0   00000022  00000022  00000000  RWIX
  EPWM5                 00006900   00000022  00000022  00000000  RWIX
  EPWM6                 00006940   00000022  00000022  00000000  RWIX
  ECAP1                 00006a00   00000020  00000020  00000000  RWIX
  ECAP2                 00006a20   00000020  00000020  00000000  RWIX
  ECAP3                 00006a40   00000020  00000020  00000000  RWIX
  ECAP4                 00006a60   00000020  00000020  00000000  RWIX
  ECAP5                 00006a80   00000020  00000020  00000000  RWIX
  ECAP6                 00006aa0   00000020  00000020  00000000  RWIX
  EQEP1                 00006b00   00000040  00000040  00000000  RWIX
  EQEP2                 00006b40   00000040  00000040  00000000  RWIX
  GPIOCTRL              00006f80   00000040  0000002e  00000012  RWIX
  GPIODAT               00006fc0   00000020  00000020  00000000  RWIX
  GPIOINT               00006fe0   00000020  0000000a  00000016  RWIX
  SYSTEM                00007010   00000020  00000020  00000000  RWIX
  SPIA                  00007040   00000010  00000010  00000000  RWIX
  SCIA                  00007050   00000010  00000010  00000000  RWIX
  XINTRUPT              00007070   00000010  00000010  00000000  RWIX
  ADC                   00007100   00000020  0000001e  00000002  RWIX
  SCIB                  00007750   00000010  00000010  00000000  RWIX
  SCIC                  00007770   00000010  00000010  00000000  RWIX
  I2CA                  00007900   00000040  00000022  0000001e  RWIX
  RAML4                 0000c000   00001000  0000073b  000008c5  RWIX
  RAML5                 0000d000   00001000  00000000  00001000  RWIX
  RAML6                 0000e000   00001000  00000000  00001000  RWIX
  RAML7                 0000f000   00001000  00000000  00001000  RWIX
  ZONE7B                0020fc00   00000400  00000000  00000400  RWIX
  FLASHB                00330000   00008000  00000000  00008000  RWIX
  CSM_PWL               0033fff8   00000008  00000008  00000000  RWIX


SECTION ALLOCATION MAP

 output                                  attributes/
section   page    origin      length       input sections
--------  ----  ----------  ----------   ----------------
.data      0    00000000    00000000     UNINITIALIZED

ZONE0DATA 
*          0    00004000    00000100     UNINITIALIZED
                  00004000    00000100     main.obj (ZONE0DATA)

ZONE6DATA 
*          0    00100000    00010000     UNINITIALIZED
                  00100000    00010000     main.obj (ZONE6DATA)

ZONE7DATA 
*          0    00200000    00000100     UNINITIALIZED
                  00200000    00000100     main.obj (ZONE7DATA)

.text      0    00318000    00008c3d     
                  00318000    00000020     rts2800_fpu32.lib : sqrt.obj (.text)
                  00318020    0000169e     code_group_all.obj (.text)
                  003196be    00001696     auto_tuning.obj (.text)
                  0031ad54    00000990     rts2800_fpu32.lib : _printfi.obj (.text)
                  0031b6e4    0000091a     SL_Vect.obj (.text)
                  0031bffe    00000767     Set_Par.obj (.text)
                  0031c765    00000657     scibv10.obj (.text)
                  0031cdbc    000005ca     delta_trip_proc.obj (.text)
                  0031d386    000003c8     code_proc.obj (.text)
                  0031d74e    000003c5     SVM.obj (.text)
                  0031db13    000003a1     regen_dsp_110513_gpio.c (.text)
                  0031deb4    00000381     analog.obj (.text)
                  0031e235    0000036f     common_module.obj (.text)
                  0031e5a4    0000032a     udd_eeprom.obj (.text)
                  0031e8ce    00000320     main.obj (.text)
                  0031ebee    00000316     DSP2833x_DefaultIsr.obj (.text)
                  0031ef04    00000300     ParameterSet.obj (.text)
                  0031f204    000002dc     hyd_unit.obj (.text)
                  0031f4e0    000001f4     rts2800_fpu32.lib : memory.obj (.text)
                  0031f6d4    000001e2     vf_contol.obj (.text)
                  0031f8b6    000001af     delta_switching_irq.obj (.text)
                  0031fa65    0000014f     DSP2833x_SysCtrl.obj (.text)
                  0031fbb4    00000138     rts2800_fpu32.lib : strtod.obj (.text)
                  0031fcec    0000012e     set_dac_point.obj (.text)
                  0031fe1a    0000011d     delta_digital_inout.obj (.text)
                  0031ff37    00000118     DS1307.obj (.text)
                  0032004f    00000109     test_run.obj (.text)
                  00320158    00000107     rts2800_fpu32.lib : ll_div.obj (.text)
                  0032025f    00000107     RefFunc.obj (.text)
                  00320366    00000102     dac_8412.obj (.text)
                  00320468    0000009c     rts2800_fpu32.lib : fd_add.obj (.text)
                  00320504    00000093     DSP2833x_CpuTimers.obj (.text)
                  00320597    0000008b     rts2800_fpu32.lib : fd_div.obj (.text)
                  00320622    00000088                       : fs_div.obj (.text)
                  003206aa    00000085     udd_timer_irq.obj (.text)
                  0032072f    00000083     rts2800_fpu32.lib : fd_mpy.obj (.text)
                  003207b2    00000061                       : cos.obj (.text)
                  00320813    0000005f                       : sin.obj (.text)
                  00320872    00000058                       : snprintf.obj (.text)
                  003208ca    00000055     MonitorProc.obj (.text)
                  0032091f    00000046     rts2800_fpu32.lib : boot.obj (.text)
                  00320965    00000031                       : atoi.obj (.text)
                  00320996    0000002e                       : ltoa.obj (.text)
                  003209c4    0000002a                       : l_div.obj (.text)
                  003209ee    0000002a                       : fd_cmp.obj (.text)
                  00320a18    0000002a     DSP2833x_PieCtrl.obj (.text)
                  00320a42    00000022     rts2800_fpu32.lib : i_div.obj (.text)
                  00320a64    00000022     DSP2833x_PieVect.obj (.text)
                  00320a86    00000021     rts2800_fpu32.lib : fd_toi.obj (.text)
                  00320aa7    00000021                       : memcpy_ff.obj (.text)
                  00320ac8    00000020                       : strncpy.obj (.text)
                  00320ae8    0000001f                       : fd_tol.obj (.text)
                  00320b07    0000001e                       : ll_cmp.obj (.text)
                  00320b25    0000001c                       : l_tofd.obj (.text)
                  00320b41    0000001c                       : fs_tofd.obj (.text)
                  00320b5d    0000001a                       : modf.obj (.text)
                  00320b77    0000001a     serial_com.obj (.text)
                  00320b91    00000018     rts2800_fpu32.lib : exit.obj (.text)
                  00320ba9    00000017     DSP2833x_MemCopy.obj (.text)
                  00320bc0    00000015     rts2800_fpu32.lib : args_main.obj (.text)
                  00320bd5    00000014                       : ll_mpy.obj (.text)
                  00320be9    00000012                       : memccpy.obj (.text)
                  00320bfb    0000000e                       : fd_sub.obj (.text)
                  00320c09    0000000a                       : strlen.obj (.text)
                  00320c13    00000009                       : _lock.obj (.text)
                  00320c1c    00000009                       : strcpy.obj (.text)
                  00320c25    00000009                       : fd_neg.obj (.text)
                  00320c2e    00000008     DSP2833x_CodeStartBranch.obj (.text)
                  00320c36    00000007     rts2800_fpu32.lib : memset.obj (.text)

ramfuncs   0    00320c3d    00000027     RUN ADDR = 00008000
                  00320c3d    00000023     DSP2833x_SysCtrl.obj (ramfuncs)
                  00320c60    00000004     DSP2833x_usDelay.obj (ramfuncs)

.pinit     0    00328000    00000000     UNINITIALIZED

IQmath     0    00328000    00000000     UNINITIALIZED

.econst    0    00338000    00001a51     
                  00338000    00000c6d     code_group_all.obj (.econst)
                  00338c6d    00000001     --HOLE-- [fill = 0]
                  00338c6e    00000449     auto_tuning.obj (.econst)
                  003390b7    00000001     --HOLE-- [fill = 0]
                  003390b8    000001c0     scibv10.obj (.econst)
                  00339278    0000018f     delta_trip_proc.obj (.econst)
                  00339407    00000001     --HOLE-- [fill = 0]
                  00339408    00000102     code_proc.obj (.econst)
                  0033950a    00000100     DSP2833x_PieVect.obj (.econst)
                  0033960a    000000bc     common_module.obj (.econst)
                  003396c6    000000b5     udd_eeprom.obj (.econst)
                  0033977b    00000001     --HOLE-- [fill = 0]
                  0033977c    00000057     hyd_unit.obj (.econst)
                  003397d3    00000001     --HOLE-- [fill = 0]
                  003397d4    00000057     test_run.obj (.econst)
                  0033982b    00000001     --HOLE-- [fill = 0]
                  0033982c    00000041     vf_contol.obj (.econst)
                  0033986d    00000001     --HOLE-- [fill = 0]
                  0033986e    0000003c     rts2800_fpu32.lib : _printfi.obj (.econst)
                  003398aa    00000036     main.obj (.econst)
                  003398e0    0000002f     Set_Par.obj (.econst)
                  0033990f    00000001     --HOLE-- [fill = 0]
                  00339910    00000014     rts2800_fpu32.lib : strtod.obj (.econst:_digits)
                  00339924    00000010     delta_digital_inout.obj (.econst)
                  00339934    0000000f     MonitorProc.obj (.econst)
                  00339943    00000001     --HOLE-- [fill = 0]
                  00339944    0000000c     rts2800_fpu32.lib : strtod.obj (.econst:_powerof10)
                  00339950    00000101                       : ctype.obj (.econst:__ctypes_)

.cinit     0    00339a51    000003d2     
                  00339a51    0000000a     rts2800_fpu32.lib : exit.obj (.cinit)
                  00339a5b    0000000a                       : _lock.obj (.cinit)
                  00339a65    00000005     common_module.obj (.cinit)
                  00339a6a    00000005     delta_switching_irq.obj (.cinit)
                  00339a6f    00000015     delta_trip_proc.obj (.cinit)
                  00339a84    00000012     hyd_unit.obj (.cinit)
                  00339a96    00000345     main.obj (.cinit)
                  00339ddb    00000005     MonitorProc.obj (.cinit)
                  00339de0    00000035     scibv10.obj (.cinit)
                  00339e15    00000005     vf_contol.obj (.cinit)
                  00339e1a    00000004     rts2800_fpu32.lib : memory.obj (.cinit)
                  00339e1e    00000004                       : errno.obj (.cinit)
                  00339e22    00000001     --HOLE-- [fill = 0]

.switch    0    00339e24    00000126     
                  00339e24    00000126     code_group_all.obj (.switch)

csm_rsvd   0    0033ff80    00000000     UNINITIALIZED

codestart 
*          0    0033fff6    00000002     
                  0033fff6    00000002     DSP2833x_CodeStartBranch.obj (codestart)

csmpasswds 
*          0    0033fff8    00000000     UNINITIALIZED

.adc_cal   0    00380080    00000007     NOLOAD SECTION
                  00380080    00000007     DSP2833x_ADC_cal.obj (.adc_cal)

IQmathTables 
*          0    003fe000    00000000     NOLOAD SECTION

IQmathTables2 
*          0    003feb50    00000000     NOLOAD SECTION

FPUmathTables 
*          0    003febdc    00000000     NOLOAD SECTION

.reset     0    003fffc0    00000002     DSECT
                  003fffc0    00000002     rts2800_fpu32.lib : boot.obj (.reset)

vectors    0    003fffc2    00000000     DSECT

.bss       1    00000000    00000000     UNINITIALIZED

.sysmem    1    00000050    00000300     UNINITIALIZED

.esysmem   1    00000400    00000000     UNINITIALIZED

.stack     1    00000400    00000300     UNINITIALIZED

DevEmuRegsFile 
*          1    00000880    000000d0     UNINITIALIZED
                  00000880    000000d0     DSP2833x_GlobalVariableDefs.obj (DevEmuRegsFile)

FlashRegsFile 
*          1    00000a80    00000008     UNINITIALIZED
                  00000a80    00000008     DSP2833x_GlobalVariableDefs.obj (FlashRegsFile)

CsmRegsFile 
*          1    00000ae0    00000010     UNINITIALIZED
                  00000ae0    00000010     DSP2833x_GlobalVariableDefs.obj (CsmRegsFile)

AdcMirrorFile 
*          1    00000b00    00000010     UNINITIALIZED
                  00000b00    00000010     DSP2833x_GlobalVariableDefs.obj (AdcMirrorFile)

XintfRegsFile 
*          1    00000b20    0000001e     UNINITIALIZED
                  00000b20    0000001e     DSP2833x_GlobalVariableDefs.obj (XintfRegsFile)

CpuTimer0RegsFile 
*          1    00000c00    00000008     UNINITIALIZED
                  00000c00    00000008     DSP2833x_GlobalVariableDefs.obj (CpuTimer0RegsFile)

CpuTimer1RegsFile 
*          1    00000c08    00000008     UNINITIALIZED
                  00000c08    00000008     DSP2833x_GlobalVariableDefs.obj (CpuTimer1RegsFile)

CpuTimer2RegsFile 
*          1    00000c10    00000008     UNINITIALIZED
                  00000c10    00000008     DSP2833x_GlobalVariableDefs.obj (CpuTimer2RegsFile)

PieCtrlRegsFile 
*          1    00000ce0    0000001a     UNINITIALIZED
                  00000ce0    0000001a     DSP2833x_GlobalVariableDefs.obj (PieCtrlRegsFile)

PieVectTableFile 
*          1    00000d00    00000100     UNINITIALIZED
                  00000d00    00000100     DSP2833x_GlobalVariableDefs.obj (PieVectTableFile)

DmaRegsFile 
*          1    00001000    000000e0     UNINITIALIZED
                  00001000    000000e0     DSP2833x_GlobalVariableDefs.obj (DmaRegsFile)

McbspaRegsFile 
*          1    00005000    00000025     UNINITIALIZED
                  00005000    00000025     DSP2833x_GlobalVariableDefs.obj (McbspaRegsFile)

McbspbRegsFile 
*          1    00005040    00000025     UNINITIALIZED
                  00005040    00000025     DSP2833x_GlobalVariableDefs.obj (McbspbRegsFile)

ECanaRegsFile 
*          1    00006000    00000034     UNINITIALIZED
                  00006000    00000034     DSP2833x_GlobalVariableDefs.obj (ECanaRegsFile)

ECanaLAMRegsFile 
*          1    00006040    00000040     UNINITIALIZED
                  00006040    00000040     DSP2833x_GlobalVariableDefs.obj (ECanaLAMRegsFile)

ECanaMOTSRegsFile 
*          1    00006080    00000040     UNINITIALIZED
                  00006080    00000040     DSP2833x_GlobalVariableDefs.obj (ECanaMOTSRegsFile)

ECanaMOTORegsFile 
*          1    000060c0    00000040     UNINITIALIZED
                  000060c0    00000040     DSP2833x_GlobalVariableDefs.obj (ECanaMOTORegsFile)

ECanaMboxesFile 
*          1    00006100    00000100     UNINITIALIZED
                  00006100    00000100     DSP2833x_GlobalVariableDefs.obj (ECanaMboxesFile)

ECanbRegsFile 
*          1    00006200    00000034     UNINITIALIZED
                  00006200    00000034     DSP2833x_GlobalVariableDefs.obj (ECanbRegsFile)

ECanbLAMRegsFile 
*          1    00006240    00000040     UNINITIALIZED
                  00006240    00000040     DSP2833x_GlobalVariableDefs.obj (ECanbLAMRegsFile)

ECanbMOTSRegsFile 
*          1    00006280    00000040     UNINITIALIZED
                  00006280    00000040     DSP2833x_GlobalVariableDefs.obj (ECanbMOTSRegsFile)

ECanbMOTORegsFile 
*          1    000062c0    00000040     UNINITIALIZED
                  000062c0    00000040     DSP2833x_GlobalVariableDefs.obj (ECanbMOTORegsFile)

ECanbMboxesFile 
*          1    00006300    00000100     UNINITIALIZED
                  00006300    00000100     DSP2833x_GlobalVariableDefs.obj (ECanbMboxesFile)

EPwm1RegsFile 
*          1    00006800    00000022     UNINITIALIZED
                  00006800    00000022     DSP2833x_GlobalVariableDefs.obj (EPwm1RegsFile)

EPwm2RegsFile 
*          1    00006840    00000022     UNINITIALIZED
                  00006840    00000022     DSP2833x_GlobalVariableDefs.obj (EPwm2RegsFile)

EPwm3RegsFile 
*          1    00006880    00000022     UNINITIALIZED
                  00006880    00000022     DSP2833x_GlobalVariableDefs.obj (EPwm3RegsFile)

EPwm4RegsFile 
*          1    000068c0    00000022     UNINITIALIZED
                  000068c0    00000022     DSP2833x_GlobalVariableDefs.obj (EPwm4RegsFile)

EPwm5RegsFile 
*          1    00006900    00000022     UNINITIALIZED
                  00006900    00000022     DSP2833x_GlobalVariableDefs.obj (EPwm5RegsFile)

EPwm6RegsFile 
*          1    00006940    00000022     UNINITIALIZED
                  00006940    00000022     DSP2833x_GlobalVariableDefs.obj (EPwm6RegsFile)

ECap1RegsFile 
*          1    00006a00    00000020     UNINITIALIZED
                  00006a00    00000020     DSP2833x_GlobalVariableDefs.obj (ECap1RegsFile)

ECap2RegsFile 
*          1    00006a20    00000020     UNINITIALIZED
                  00006a20    00000020     DSP2833x_GlobalVariableDefs.obj (ECap2RegsFile)

ECap3RegsFile 
*          1    00006a40    00000020     UNINITIALIZED
                  00006a40    00000020     DSP2833x_GlobalVariableDefs.obj (ECap3RegsFile)

ECap4RegsFile 
*          1    00006a60    00000020     UNINITIALIZED
                  00006a60    00000020     DSP2833x_GlobalVariableDefs.obj (ECap4RegsFile)

ECap5RegsFile 
*          1    00006a80    00000020     UNINITIALIZED
                  00006a80    00000020     DSP2833x_GlobalVariableDefs.obj (ECap5RegsFile)

ECap6RegsFile 
*          1    00006aa0    00000020     UNINITIALIZED
                  00006aa0    00000020     DSP2833x_GlobalVariableDefs.obj (ECap6RegsFile)

EQep1RegsFile 
*          1    00006b00    00000040     UNINITIALIZED
                  00006b00    00000040     DSP2833x_GlobalVariableDefs.obj (EQep1RegsFile)

EQep2RegsFile 
*          1    00006b40    00000040     UNINITIALIZED
                  00006b40    00000040     DSP2833x_GlobalVariableDefs.obj (EQep2RegsFile)

GpioCtrlRegsFile 
*          1    00006f80    0000002e     UNINITIALIZED
                  00006f80    0000002e     DSP2833x_GlobalVariableDefs.obj (GpioCtrlRegsFile)

GpioDataRegsFile 
*          1    00006fc0    00000020     UNINITIALIZED
                  00006fc0    00000020     DSP2833x_GlobalVariableDefs.obj (GpioDataRegsFile)

GpioIntRegsFile 
*          1    00006fe0    0000000a     UNINITIALIZED
                  00006fe0    0000000a     DSP2833x_GlobalVariableDefs.obj (GpioIntRegsFile)

SysCtrlRegsFile 
*          1    00007010    00000020     UNINITIALIZED
                  00007010    00000020     DSP2833x_GlobalVariableDefs.obj (SysCtrlRegsFile)

SpiaRegsFile 
*          1    00007040    00000010     UNINITIALIZED
                  00007040    00000010     DSP2833x_GlobalVariableDefs.obj (SpiaRegsFile)

SciaRegsFile 
*          1    00007050    00000010     UNINITIALIZED
                  00007050    00000010     DSP2833x_GlobalVariableDefs.obj (SciaRegsFile)

XIntruptRegsFile 
*          1    00007070    00000010     UNINITIALIZED
                  00007070    00000010     DSP2833x_GlobalVariableDefs.obj (XIntruptRegsFile)

AdcRegsFile 
*          1    00007100    0000001e     UNINITIALIZED
                  00007100    0000001e     DSP2833x_GlobalVariableDefs.obj (AdcRegsFile)

ScibRegsFile 
*          1    00007750    00000010     UNINITIALIZED
                  00007750    00000010     DSP2833x_GlobalVariableDefs.obj (ScibRegsFile)

ScicRegsFile 
*          1    00007770    00000010     UNINITIALIZED
                  00007770    00000010     DSP2833x_GlobalVariableDefs.obj (ScicRegsFile)

I2caRegsFile 
*          1    00007900    00000022     UNINITIALIZED
                  00007900    00000022     DSP2833x_GlobalVariableDefs.obj (I2caRegsFile)

DMARAML4   1    0000c000    00000000     UNINITIALIZED

.ebss      1    0000c000    0000073b     UNINITIALIZED
                  0000c000    00000648     main.obj (.ebss)
                  0000c648    00000018     DSP2833x_CpuTimers.obj (.ebss)
                  0000c660    0000000e     hyd_unit.obj (.ebss)
                  0000c66e    00000008     rts2800_fpu32.lib : memory.obj (.ebss)
                  0000c676    00000006     SVM.obj (.ebss)
                  0000c67c    00000004     rts2800_fpu32.lib : exit.obj (.ebss)
                  0000c680    000000a4     scibv10.obj (.ebss)
                  0000c724    00000006     delta_trip_proc.obj (.ebss)
                  0000c72a    00000004     rts2800_fpu32.lib : _lock.obj (.ebss)
                  0000c72e    00000002     MonitorProc.obj (.ebss)
                  0000c730    00000002     RefFunc.obj (.ebss)
                  0000c732    00000002     common_module.obj (.ebss)
                  0000c734    00000002     delta_switching_irq.obj (.ebss)
                  0000c736    00000002     vf_contol.obj (.ebss)
                  0000c738    00000001     rts2800_fpu32.lib : errno.obj (.ebss)
                  0000c739    00000001     DSP2833x_GlobalVariableDefs.obj (.ebss)
                  0000c73a    00000001     udd_timer_irq.obj (.ebss)

DMARAML5   1    0000d000    00000000     UNINITIALIZED

DMARAML6   1    0000e000    00000000     UNINITIALIZED

DMARAML7   1    0000f000    00000000     UNINITIALIZED

CsmPwlFile 
*          1    0033fff8    00000008     UNINITIALIZED
                  0033fff8    00000008     DSP2833x_GlobalVariableDefs.obj (CsmPwlFile)


GLOBAL SYMBOLS: SORTED ALPHABETICALLY BY Name 

address    name
--------   ----
00000000   .bss
00000000   .data
00318000   .text
00320b91   C$$EXIT
00320468   FD$$ADD
003209ee   FD$$CMP
00320597   FD$$DIV
0032072f   FD$$MPY
00320c25   FD$$NEG
00320bfb   FD$$SUB
00320a86   FD$$TOI
00320ae8   FD$$TOL
00320622   FS$$DIV
00320b41   FS$$TOFD
00320a42   I$$DIV
00320a53   I$$MOD
003209c4   L$$DIV
003209d3   L$$MOD
00320b25   L$$TOFD
00320b07   LL$$CMP
00320158   LL$$DIV
00320194   LL$$MOD
00320bd5   LL$$MPY
003209e1   UL$$DIV
003209e8   UL$$MOD
00320b19   ULL$$CMP
003201ce   ULL$$DIV
003201fd   ULL$$MOD
0031ecd4   _ADCINT_ISR
00380080   _ADC_cal
0000c0d4   _AT_DeadTimeGain
0000c166   _AT_Freq_Leq_Req
0000c0d8   _AT_Freq_Ls
0000c0da   _AT_Is_Coeff_Leq_Req
0000c0e8   _AT_Is_Coeff_Rs
0000c0ec   _AT_Ls_DMB_OpenTime
0000c0de   _AT_Ls_Vs_RAMP
0000c0e2   _AT_Te_Coeff_Jm
0000c0e0   _AT_Time_Jm
0000c0dc   _AT_Time_Leq_Req
0000c0e6   _AT_Time_Ls
0000c0d6   _AT_Time_Rs
00000b00   _AdcMirror
00007100   _AdcRegs
0031df18   _Adc_Isr
0000c07e   _AnaCmdReference
0000c02d   _AutoTuningFlag
0000c0be   _Base_Flux_Coeff
0031c4c8   _COMMON_SL_VECT_CNTL_ParameterVerification
0031c1b2   _COMMON_VECT_CNTL_ParameterVerification
0000c2c0   _C_ce
0000c2ce   _C_ce_nF
0031cf48   _CheckIGBTFault
0031cf8e   _CheckIGBTFault2
0031ce01   _CheckOverCurrent
0031cfd4   _CheckOverHeat
0031cf15   _CheckOverSpeed
0031ceb5   _CheckOverVolt
0031d4ef   _CheckSum
0031d4f1   _CheckSum_bk
0031cee4   _CheckUndeVolt
0031d315   _ClearTripDataToEeprom
00320550   _ConfigCpuTimer
0000c2d4   _CosDeltaTheta
0000c232   _CosTheta
0000c2e0   _CosTheta1
0000c658   _CpuTimer0
00000c00   _CpuTimer0Regs
0000c648   _CpuTimer1
00000c08   _CpuTimer1Regs
0000c650   _CpuTimer2
00000c10   _CpuTimer2Regs
0033fff8   _CsmPwl
00000ae0   _CsmRegs
0031fb83   _CsmUnlock
0031ec02   _DATALOG_ISR
0031edf6   _DINTCH1_ISR
0031ee00   _DINTCH2_ISR
0031ee0a   _DINTCH3_ISR
0031ee14   _DINTCH4_ISR
0031ee1e   _DINTCH5_ISR
0031ee28   _DINTCH6_ISR
0031ff60   _DS1307ReadData
0031ff37   _DS1307WriteData
00008023   _DSP28x_usDelay
0000c118   _Data_Backup
0000c11e   _Data_Check
0000c0f4   _Data_Init
0000c0f6   _Data_Load
0000c676   _Dd
0000c2dc   _DecRef
0000c10e   _Default_wr_FilterPole
0000c29a   _DeltaLambda
0000c2e4   _DeltaTheta
0000c29e   _Delta_wr
0000c116   _Delta_wr_FilterPoleCoeff_L
0000c114   _Delta_wr_FilterPoleCoeff_U
0000c2e2   _Delta_wr_Filter_Pole
00000880   _DevEmuRegs
0031fa78   _DisableDog
00001000   _DmaRegs
0000c2e6   _DutyCount
0000c33a   _DutyRatio
0031ee82   _ECAN0INTA_ISR
0031ee96   _ECAN0INTB_ISR
0031ee8c   _ECAN1INTA_ISR
0031eea0   _ECAN1INTB_ISR
0031ed6a   _ECAP1_INT_ISR
0031ed74   _ECAP2_INT_ISR
0031ed7e   _ECAP3_INT_ISR
0031ed88   _ECAP4_INT_ISR
0031ed92   _ECAP5_INT_ISR
0031ed9c   _ECAP6_INT_ISR
00006040   _ECanaLAMRegs
000060c0   _ECanaMOTORegs
00006080   _ECanaMOTSRegs
00006100   _ECanaMboxes
00006000   _ECanaRegs
00006240   _ECanbLAMRegs
000062c0   _ECanbMOTORegs
00006280   _ECanbMOTSRegs
00006300   _ECanbMboxes
00006200   _ECanbRegs
00006a00   _ECap1Regs
00006a20   _ECap2Regs
00006a40   _ECap3Regs
00006a60   _ECap4Regs
00006a80   _ECap5Regs
00006aa0   _ECap6Regs
0031ec16   _EMUINT_ISR
0031ed2e   _EPWM1_INT_ISR
0031ecf2   _EPWM1_TZINT_ISR
0031ed38   _EPWM2_INT_ISR
0031ecfc   _EPWM2_TZINT_ISR
0031ed42   _EPWM3_INT_ISR
0031ed06   _EPWM3_TZINT_ISR
0031ed4c   _EPWM4_INT_ISR
0031ed10   _EPWM4_TZINT_ISR
0031ed56   _EPWM5_INT_ISR
0031ed1a   _EPWM5_TZINT_ISR
0031ed60   _EPWM6_INT_ISR
0031ed24   _EPWM6_TZINT_ISR
00006800   _EPwm1Regs
00006840   _EPwm2Regs
00006880   _EPwm3Regs
000068c0   _EPwm4Regs
00006900   _EPwm5Regs
00006940   _EPwm6Regs
0031eda6   _EQEP1_INT_ISR
0031edb0   _EQEP2_INT_ISR
00006b00   _EQep1Regs
00006b40   _EQep2Regs
0000c008   _EepromSaveFlag
00320a37   _EnableInterrupts
0000c0cc   _ExcitationTime
0000c0c4   _FW_VoltageCoeff
0000c005   _Flag_TripDataBackup
00000a80   _FlashRegs
0000c1c2   _Fr
0000c2ac   _Fr_Err
0000c2a8   _Fr_ErrInt
0000c2c4   _Fr_rat
0000c1c8   _Fr_ref
0000c1c4   _Fr_ref0
0000c1f4   _Freq_out
0000c0fc   _Freq_rat
0000c2b4   _Freq_ref
0000c1fc   _Freq_set
0000c2b6   _Freq_slip
0000c282   _Freq_slip_rat
0000c1b6   _Fs
0000c1b8   _Fs1
0000c268   _Fs_B
0000c304   _Fs_dq
0000c2c8   _Fs_rat
0000c1bc   _Fs_ref
0000c1ca   _Fs_ref0
0000c0c8   _GM_Fr
0000c0ca   _GM_Is
0000c102   _GainUpdateTimer
0000c10a   _GammaLambda
0000c108   _GammaLambda_R_Constant
0000c10c   _GammaTheta_M
0000c11a   _GammaTheta_R
0031f9f2   _GetAnaMonitCount
00320915   _GetInputMark
0031ff8c   _GetTimeAndDateStr
0031d164   _GetTripInfo
00006f80   _GpioCtrlRegs
00006fc0   _GpioDataRegs
00006fe0   _GpioIntRegs
0031bffe   _HardwareParameterVerification
0031e5a4   _I2CA_Init
0031e613   _I2CA_ReadData
0031e5b6   _I2CA_WriteData
0031ee32   _I2CINT1A_ISR
0031ee3c   _I2CINT2A_ISR
00007900   _I2caRegs
0031ec2a   _ILLEGAL_ISR
0031ebee   _INT13_ISR
0031ebf8   _INT14_ISR
0000c29c   _I_DS0
0000c2a0   _I_DS0_0
0000c298   _I_DS_err
0000c27e   _I_QS_rat
0000c170   _I_sense_value
0000c1fa   _Im_Power
0000c2da   _IncRef
0000c2de   _IncScanRef
0031deb4   _InitAdc
00320504   _InitCpuTimers
0031ea8c   _InitEPwm_ACIM_Inverter
00008000   _InitFlash
0031db13   _InitGpio
0031fad3   _InitPeripheralClocks
00320a18   _InitPieCtrl
00320a64   _InitPieVectTable
0031fa80   _InitPll
0031fa65   _InitSysCtrl
0031ebd0   _InitWatchDog
0031de20   _InitXintf
0000c320   _Is_DQ
0000c31c   _Is_DQ_ErrInt
0000c324   _Is_DQ_max
0000c318   _Is_DQ_ref
0000c106   _Is_Leq_Req
0000c072   _Is_Max_Coeff
0000c1a6   _Is_R
0000c1a8   _Is_S
0000c1a4   _Is_T
0000c334   _Is_abc
0000c32c   _Is_dq
0000c330   _Is_dq_ErrInt
0000c328   _Is_dq_ref
0000c1ea   _Is_mag
0000c1e6   _Is_mag_rms
0000c1e2   _Is_max
0000c20a   _Is_rat
0000c172   _Jm
0000c033   _Jm_ID_ENABLE
0000c352   _Jm_ID_Te
0000c362   _Jm_ID_t
0000c35a   _Jm_ID_wr
0000c30c   _Jm_SampleData
0000c0d2   _K_Damp_Fr
0000c0d0   _K_Damp_Is
0000c0bc   _K_Damp_wr
0000c0a8   _K_damp_hyd_press
0000c08e   _Ki_Is
0000c09c   _Ki_hyd_press
0000c276   _Ki_wr
0000c090   _Kp_Is
0000c26e   _Kp_Is_Coeff
0000c0a6   _Kp_hyd_press
0000c284   _Kp_wr
0000c2c6   _Kt
0031e306   _LPF1
0031e235   _LPF_COEFF_CAL
0031e292   _LPF_I
0000c278   _LPF_Ia_feed
0000c27a   _LPF_Ia_in
0000c28a   _LPF_Ia_out
0000c250   _LPF_Ib_feed
0000c25e   _LPF_Ib_in
0000c240   _LPF_Ib_out
0000c0ee   _LPF_Is
0000c0f8   _LPF_Is_Square
0000c100   _LPF_Re_Power
0000c1d6   _LPF_Te
0031e269   _LPF_V
0000c1ce   _LPF_Vdc_feed
0000c1ba   _LPF_Vdc_in
0000c254   _LPF_Vdc_out
0000c0f2   _LPF_Vs_Square
0031eee6   _LUF_ISR
0031eedc   _LVF_ISR
0000c096   _Leq
0000c184   _Lm
0000c242   _Lm_div_Lr
0000c176   _Lr
0000c244   _Lr_div_Lm
0000c178   _Ls
0031ede2   _MRINTA_ISR
0031edce   _MRINTB_ISR
0031edec   _MXINTA_ISR
0031edd8   _MXINTB_ISR
0031f901   _MainPWM
0000c112   _Max_DeltaLambda
0000c120   _Max_DeltaTheta
0000c1d8   _Max_Trq_Coeff
0000c0ce   _Max_wn_wr
00005000   _McbspaRegs
00005040   _McbspbRegs
00320ba9   _MemCopy
0000c3c0   _MonitorMsg
0031f8b6   _MotorControlProc
0031ec20   _NMI_ISR
0031e325   _Nop
0000c080   _OverCurLimit
0031eef0   _PIE_RESERVED
0031e328   _PI_Damp_Controller
0000c0c6   _PM_Fr
0000c110   _PM_Is
0000c256   _P_pair
0000c739   _PartIdRegs
0000c28e   _Pf
00000ce0   _PieCtrlRegs
00000d00   _PieVectTable
0033950a   _PieVectTableInit
0031e38f   _PowerOnReset
0000c2ae   _Power_core
0000c2b0   _Power_core_rat
0000c2a2   _Power_gap
0031ec0c   _RTOSINT_ISR
0000c15e   _R_phase_I_sense_span
0000c180   _R_phase_I_sense_zero
00320c64   _RamfuncsLoadEnd
00320c3d   _RamfuncsLoadStart
00008000   _RamfuncsRunStart
0000c1f8   _Re_Power
0031d27e   _ReadTripString
0032025f   _RefFunc
0000c08c   _Req
0000c132   _Rr
0000c138   _Rs
0031ee5a   _SCIRXINTA_ISR
0031ee6e   _SCIRXINTB_ISR
0031ee46   _SCIRXINTC_ISR
0031ee64   _SCITXINTA_ISR
0031ee78   _SCITXINTB_ISR
0031ee50   _SCITXINTC_ISR
0031ecac   _SEQ1INT_ISR
0031ecb6   _SEQ2INT_ISR
0031c633   _SL_SPEED_CNTL_Parameter
0031b6e4   _SL_SpeedCntl_SFRF
0031c624   _SL_TORQUE_CNTL_Parameter
0031b7ae   _SL_TorqueCntl_SFRF
0031b7df   _SL_VectCntl_SFRF
0031edba   _SPIRXINTA_ISR
0031edc4   _SPITXINTA_ISR
0000c288   _S_lin
0000c16a   _S_phase_I_sense_span
0000c15c   _S_phase_I_sense_zero
0000c27c   _S_rat
0031d528   _SaveDataProc
0031d2a2   _SaveTripDataToEeprom
00007050   _SciaRegs
00007750   _ScibRegs
00007770   _ScicRegs
0031fa6e   _ServiceDog
0031e38e   _SetSensorOffset
0000c2d6   _SinCosDeltaTheta
0000c2d0   _SinDeltaTheta
0000c236   _SinTheta
0000c2d2   _SinTheta1
0000c2b2   _Slip
0000c258   _SlipCoeff
0000c11c   _SlipCompCoeff
0031d74e   _SpaceVectorModulation
00007040   _SpiaRegs
00007010   _SysCtrlRegs
0031ecde   _TINT0_ISR
0000c678   _T_d
0000c1da   _Te
0000c1dc   _Te_max
0000c2ca   _Te_rat
0000c1de   _Te_ref
0000c688   _TimeInput
0000c23a   _Tr
0000c480   _TripInfo
0000c500   _TripInfoNow
0031d018   _TripProc
0000c20c   _Ts
0031ec8e   _USER10_ISR
0031ec98   _USER11_ISR
0031eca2   _USER12_ISR
0031ec34   _USER1_ISR
0031ec3e   _USER2_ISR
0031ec48   _USER3_ISR
0031ec52   _USER4_ISR
0031ec5c   _USER5_ISR
0031ec66   _USER6_ISR
0031ec70   _USER7_ISR
0031ec7a   _USER8_ISR
0031ec84   _USER9_ISR
0000c2fa   _Us_dq
0000c158   _VF_DeadTimeGain
0000c156   _VF_ExcitationTime
0000c15a   _VF_Freq_TrqBoost
0000c160   _VF_Fs_Coeff
0000c164   _VF_IR_Comp_FilterPole
0000c16c   _VF_Rs
0000c16e   _VF_Rs_ThermalCoeff
0000c162   _VF_Slip_Comp_FilterPole
0000c168   _VF_Vs_Coeff_TrqBoost
0031ef04   _VariableInitialization
0000c1e4   _Vdc
0000c1ac   _Vdc_calc_offset
0000c19e   _Vdc_factor
0000c0fe   _Vdc_fnd_data
0000c198   _Vo
0031d9e1   _VoltageEstimation
0000c0f0   _Vs_Coeff_Leq_Req
0000c2f2   _Vs_DQ
0000c310   _Vs_DQ_comp
0000c2ea   _Vs_DQ_max
0000c2ee   _Vs_DQ_ref
0000c308   _Vs_DQ_ref_P
0000c300   _Vs_DQ_ref_PI
0000c294   _Vs_IR_comp
0000c190   _Vs_R
0000c1b2   _Vs_R_calc_offset
0000c1aa   _Vs_R_factor
0000c192   _Vs_S
0000c1a2   _Vs_S_calc_offset
0000c1b0   _Vs_S_factor
0000c18e   _Vs_T
0000c1e8   _Vs_T_calc_offset
0000c1a0   _Vs_T_factor
0000c34c   _Vs_abc
0000c340   _Vs_abc_ref
0000c2f6   _Vs_dq
0000c314   _Vs_dq_ref
0000c1f2   _Vs_max
0000c1d0   _Vs_max_FW
0000c208   _Vs_rat
0000c2a6   _Vs_ref
0031ece8   _WAKEINT_ISR
0031fffd   _WriteTimeToDS1307
0031d249   _WriteTripString
0031ecc0   _XINT1_ISR
0031ecca   _XINT2_ISR
0031eeaa   _XINT3_ISR
0031eeb4   _XINT4_ISR
0031eebe   _XINT5_ISR
0031eec8   _XINT6_ISR
0031eed2   _XINT7_ISR
00007070   _XIntruptRegs
00000b20   _XintfRegs
00004000   _ZONE0_BUF
00100000   _ZONE6_BUF
00200000   _ZONE7_BUF
00000300   __STACK_SIZE
00000300   __SYSMEM_SIZE
ffffffff   ___TI_pprof_out_hndl
ffffffff   ___TI_prof_var_size
ffffffff   ___TI_prof_var_start
ffffffff   ___binit__
00000000   ___bss__
ffffffff   ___c_args__
00339a51   ___cinit__
00000000   ___data__
00000000   ___edata__
00000000   ___end__
00320c3d   ___etext__
00320aa7   ___memcpy_ff
ffffffff   ___pinit__
00318000   ___text__
00320bc0   __args_main
0000c67c   __cleanup_ptr
00339950   __ctypes_
0000c67e   __dtors_ptr
0000c72c   __lock
00320c1b   __nop
0031b5de   __printfi
00320c17   __register_lock
00320c13   __register_unlock
00000400   __stack
00000050   __sys_memory
0000c72a   __unlock
00320b91   _abort
0000c07a   _accel_time1
0000c086   _accel_time2
0000c01c   _adc_R_offset
0000c01d   _adc_S_offset
0000c380   _adc_result
0000c01a   _adc_u_offset
0000c01b   _adc_v_offset
0000c04a   _analog_cmd_in_span1
0000c052   _analog_cmd_in_span2
0000c0a4   _analog_cmd_in_zero1
0000c048   _analog_cmd_in_zero2
0031e3df   _analog_cmd_proc
0031e208   _analog_input_proc
0031e211   _analog_out_proc
0000c1cc   _analog_ref_a
0000c1d4   _analog_ref_b
00320965   _atoi
0031d49e   _backup_data_load
0000c082   _btn_start_ref
0032091f   _c_int00
0031f6b9   _calloc
0031d41d   _check_backup_data
0031e806   _check_code_data
0031e212   _check_sensor_trip
0031f6b7   _chkheap
0000c009   _cmdtest
0000c0ea   _code_Ki_Is_Coeff
0000c0e4   _code_Kp_Is_Coeff
0000c136   _code_LPF_cutoff_hz_I
0000c124   _code_LPF_cutoff_hz_V
0000c068   _code_Vdc_calc_high
0000c070   _code_Vdc_calc_low
0000c060   _code_Vdc_offseter
0000c064   _code_Vdc_scaler
0000c150   _code_Vs_R_calc_high
0000c142   _code_Vs_R_calc_low
0000c06c   _code_Vs_R_offseter
0000c066   _code_Vs_R_scaler
0000c154   _code_Vs_S_calc_high
0000c14e   _code_Vs_S_calc_low
0000c13c   _code_Vs_S_offseter
0000c13e   _code_Vs_S_scaler
0000c128   _code_Vs_T_calc_high
0000c12a   _code_Vs_T_calc_low
0000c148   _code_Vs_T_offseter
0000c14a   _code_Vs_T_scaler
0000c040   _code_adc_Vs_R_high
0000c06a   _code_adc_Vs_R_low
0000c140   _code_adc_Vs_S_high
0000c146   _code_adc_Vs_S_low
0000c14c   _code_adc_Vs_T_high
0000c152   _code_adc_Vs_T_low
0000c05c   _code_adc_vdc_high
0000c05e   _code_adc_vdc_low
0000c06e   _code_dac_offset_ch1
0000c050   _code_dac_offset_ch2
0000c042   _code_dac_offset_ch3
0000c078   _code_dac_offset_ch4
0000c04c   _code_dac_scale_ch1
0000c04e   _code_dac_scale_ch2
0000c046   _code_dac_scale_ch3
0000c044   _code_dac_scale_ch4
0000c01e   _code_dac_select_ch1
0000c016   _code_dac_select_ch2
0000c017   _code_dac_select_ch3
0000c019   _code_dac_select_ch4
0000c440   _code_inform
0000c018   _code_protect_IGBT2_off
0000c024   _code_protect_IGBT_off
0000c028   _code_protect_Iadc_off
0000c025   _code_protect_ex_trip_off
0000c01f   _code_protect_inhibit_on
0000c027   _code_protect_ov_off
0000c026   _code_protect_over_I_off
0000c020   _code_protect_uv_off
0000c0aa   _code_speed2
0000c0ac   _code_speed3
0000c0b6   _code_speed4
0000c0b8   _code_speed5
003207b2   _cos
003206aa   _cpu_timer0_isr
00320366   _dac8412_out
0000c1d2   _dac_ch0_unit_count_value
0000c1e0   _dac_ch1_unit_count_value
0000c196   _dac_ch2_unit_count_value
0000c194   _dac_ch3_unit_count_value
0000c580   _dac_point
0031e799   _data_over_proc
0031e755   _data_under_proc
0000c03a   _debug1
0000c07c   _decel_time1
0000c088   _decel_time2
0000c296   _del_Vs_comp
0031e3ab   _delay_msecs
0000c67a   _delta_Tc
0031fe4d   _digital_input_proc
0031feeb   _digital_out_proc
0031fe8a   _digital_port_check
0000c0b0   _digital_speed2
0000c022   _disp_fnd_mode
0031fe20   _driver_enable_proc
0000c054   _e_thermal_level
0000c738   _errno
0031a8ba   _estim_Jm_loop
0031a0da   _estim_Jm_pwm
0031a53c   _estim_Ls_loop
00319ac9   _estim_Ls_pwm
003196be   _estim_ReqLeq_pwm
0031a49a   _estim_Rs_loop
003199dc   _estim_Rs_pwm
0031a258   _estim_req_leq_loop
00320b93   _exit
0031fe1a   _fault_reset
0031f4e0   _free
0031f699   _free_memory
0000c226   _frequency
0000c094   _func_flag
0000c034   _gAutoTuningSelect
0000c032   _gControlMode
0000c038   _gDeChargeFlag
0000c039   _gMachineState
0000c035   _gPWMTripCode
0000c001   _gRunFlag
0000c029   _gSciInFlag
0000c390   _gSciaRxBuf
0000c3a1   _gSciaTxBuf
0000c02c   _gSciaTxEndFlag
0000c02a   _gSciaTxInPoint
0000c030   _gSciaTxOutPoint
0000c02b   _gStartInitFinish
0000c400   _gStr1
0000c36a   _gStr2
0000c00f   _gTripFlag
0000c003   _gTripSaveFlag
0000c036   _gTripSavePoint
0000c092   _gdouSciCmdData
0031e445   _get_adc_offset
0031e548   _get_adc_vdc_high
0031e4ec   _get_adc_vdc_low
00318020   _get_code_group0
003182df   _get_code_group1
003184d5   _get_code_group2
0031870b   _get_code_group3
00318b92   _get_code_group4
00318d80   _get_code_group5
00318fb5   _get_code_group6
003192ea   _get_code_group7
0031965b   _get_code_group8
0031d386   _get_code_information
0031e3f0   _get_command
0031e67c   _get_eprom_address
0000c200   _gfRunTime
0000c00e   _giAdcAI_I1
0000c00a   _giAdcAI_I2
0000c00c   _giAdcAI_V1
0000c00b   _giAdcAI_V2
0000c00d   _giAdcAnaCmd
0000c012   _giAdcTemp
0000c037   _giAdcUphase
0000c014   _giAdcVdc
0000c031   _giAdcVphase
0000c03d   _giSciCmdAddr
0000c03e   _giSciCmdFunction
0000c000   _guiEpwmPeriodCount
0000c098   _gulStartCount
0000c09a   _hyd_decel_time
0000c09e   _hyd_idle_ref
0000c0a2   _hyd_integal_limit
0000c0a0   _hyd_max_ref
0000c0b4   _hyd_press_ctrl_band
0000c0b2   _hyd_press_ref
0031f204   _hyd_ramp_proc
0031f416   _hyd_unit_control
0031f361   _hyd_unit_loop_proc
0031f28f   _hyd_unit_proc
0031f2c7   _hyd_unit_proc_bk
0031e3d2   _iGetAinCmd
0000c186   _igbt_pwm_freq
0000c03c   _init_charge_flag
0031d6d4   _init_eprom_data
0031fe3b   _input_acc_dec_byp_proc
0031fe32   _input_acel_decel_switch_proc
0031fe26   _input_ai_local_remote_proc
0031fe23   _input_ai_ref_active_proc
0031fe3e   _input_ext_fault_a_proc
0031fe29   _input_ext_fault_b_proc
0031fe2f   _input_mb_brake_state_proc
0031fe2c   _input_motor_select_proc
0031fe38   _input_ref_tunning_dec_proc
0031fe35   _input_ref_tunning_inc_proc
0000c2c2   _inv_C_ce
0000c2aa   _inv_Fr
0000c1c0   _inv_Fr_ref
0000c0fa   _inv_Freq_rat
0000c1c6   _inv_Fs
0000c272   _inv_Fs_B
0000c1be   _inv_Fs_ref
0000c270   _inv_GM_Is
0000c274   _inv_GM_Is_square_minus_1
0000c280   _inv_I_QS_rat
0000c206   _inv_Is_rat
0000c262   _inv_Kt
0000c238   _inv_Ls
0000c24a   _inv_Ls_plus_sigma_Ls
0000c252   _inv_P_pair
0000c2d8   _inv_SinCosDeltaTheta
0000c2cc   _inv_Te_rat
0000c248   _inv_Tr
0000c1fe   _inv_Ts
0000c19c   _inv_code_dac_scale_ch1
0000c19a   _inv_code_dac_scale_ch2
0000c18c   _inv_code_dac_scale_ch3
0000c18a   _inv_code_dac_scale_ch4
0000c2be   _inv_motor_rat_hz
0000c204   _inv_motor_rate_hz
0000c23c   _inv_sigma_Ls
0000c25a   _inv_sigma_Tr
0031e7dd   _invalid_address_proc
0000c084   _jog_speed
0031e2cb   _linear_eq
0031e855   _load_code2ram
0031c810   _load_scib_tx_mail_box
0031c7ed   _load_scib_tx_mail_box_char
00320996   _ltoa
0031e8ce   _main
0031f554   _malloc
0031f677   _max_free
00320be9   _memccpy
00320c36   _memset
0000c0ae   _min_vf_ref
0031f529   _minit
00320b5d   _modf
003208dd   _monitor_proc
0000c004   _motor_ctrl_mode
0000c010   _motor_direction_change
0000c130   _motor_pole
0000c126   _motor_rate_current
0000c12e   _motor_rate_effiency
0000c134   _motor_rate_hz
0000c122   _motor_rate_power
0000c13a   _motor_rate_rpm
0000c12c   _motor_rate_volt
0000c062   _over_I_time
0000c074   _over_current_level
0000c05a   _over_speed_level
0000c076   _over_volt_set
0000c264   _pCoeff_I1
0000c266   _pCoeff_I2
0000c26a   _pCoeff_V1
0000c286   _pCoeff_V2
0031ac08   _parameter_estimation
0031e3be   _periodic_check
0000c056   _pre_charge_time
0000c1ae   _prev_I_QS
0000c023   _protect_reg
0000c002   _ramp_func_mode
00320352   _ramp_proc
0031e713   _read_eprom_data
0031f5af   _realloc
0000c1f6   _ref_time
0000c2b8   _reference0
0000c22a   _reference1
0000c1ec   _reference_in
0000c1ee   _reference_out
0000c011   _relay_flag
0000c1f0   _rpm
0000c24e   _rpm_Coeff
0000c1b4   _rpm_err
0000c218   _rpm_m
0000c21a   _rpm_ref
0031eefa   _rsvd_ISR
0000c006   _run_input_select
0031d467   _save_backup_data
0031c88b   _scibRxFifoIsr
0031c82f   _scibTxFifoIsr
0031c90a   _scib_cmd_proc
0031c780   _scib_fifo_init
0000c683   _scib_rx_end_addr
0000c6a6   _scib_rx_msg_box
0000c013   _scib_rx_msg_flag
0000c684   _scib_rx_start_addr
0000c680   _scib_tx_end_addr
0031c7d7   _scib_tx_msg
0000c6c0   _scib_tx_msg_box
0000c681   _scib_tx_start_addr
00320b77   _serial_com_proc
0031d3fd   _set_code_default_double
0031d3e2   _set_code_default_int
0031fcec   _set_dac_point
0000c290   _sgn_I_QS
0000c346   _sgn_Is
0000c260   _sigma
0000c25c   _sigma_Ls
0000c246   _sigma_Ls_div_1_plus_sigma
0000c24c   _sigma_Tr
0000c23e   _sigma_minus_1_div_sigma_Ls
00320813   _sin
00320872   _snprintf
00318000   _sqrt
00320c1c   _strcpy
00320c09   _strlen
00320ac8   _strncpy
0031fbb4   _strtod
0000c021   _terminal_input_state
0032004f   _test_run
0000c234   _theta
0000c2a4   _theta_m
0000c104   _time_t
0031cff2   _trip_check
0031cdcf   _trip_recording
0000c174   _u_phase_I_sense_span
0000c17a   _u_phase_I_sense_zero
0031e3a7   _ulGetNow_mSec
0031e390   _ulGetTime_mSec
0000c058   _under_volt_set
0000c188   _v_phase_I_sense_span
0000c182   _v_phase_I_sense_zero
0000c17c   _vdc_sense_span
0000c17e   _vdc_sense_zero
0031f806   _vf_frequency_control
0031f6d4   _vf_loop_control
0031f80d   _vf_simple_control
0000c210   _w_sl
0000c21e   _w_sl0
0031ebbc   _wakeint_isr
0000c228   _we
0000c224   _we0
0000c220   _we_FW
0000c21c   _we_FW1
0000c22c   _we_in
0000c202   _we_rat
0000c2bc   _wm_rat
0000c28c   _wn_wr
0000c0c0   _wn_wr_Coeff
0000c144   _wp_Is
0000c26c   _wp_Is_Coeff
0000c222   _wr
0000c007   _wr_CntlPeriodIndex
0000c292   _wr_Cycle
0000c015   _wr_CycleIndex
0000c0ba   _wr_DampingRatio
0000c20e   _wr_ErrInt
0000c08a   _wr_FilterPole
0000c0c2   _wr_FilterPoleCoeff
0000c02f   _wr_ctrl_index
0000c212   _wr_err
0000c22e   _wr_m
0000c230   _wr_m0
0000c2ba   _wr_rat
0000c214   _wr_ref
0000c216   _wr_ref0
0031e6de   _write_code_2_eeprom
0000c03b   _xcon_data
ffffffff   binit
00339a51   cinit
0033fff6   code_start
00000000   edata
00000000   end
00320c3d   etext
ffffffff   pinit


GLOBAL SYMBOLS: SORTED BY Symbol Address 

address    name
--------   ----
00000000   .bss
00000000   .data
00000000   ___bss__
00000000   ___data__
00000000   ___edata__
00000000   ___end__
00000000   edata
00000000   end
00000050   __sys_memory
00000300   __STACK_SIZE
00000300   __SYSMEM_SIZE
00000400   __stack
00000880   _DevEmuRegs
00000a80   _FlashRegs
00000ae0   _CsmRegs
00000b00   _AdcMirror
00000b20   _XintfRegs
00000c00   _CpuTimer0Regs
00000c08   _CpuTimer1Regs
00000c10   _CpuTimer2Regs
00000ce0   _PieCtrlRegs
00000d00   _PieVectTable
00001000   _DmaRegs
00004000   _ZONE0_BUF
00005000   _McbspaRegs
00005040   _McbspbRegs
00006000   _ECanaRegs
00006040   _ECanaLAMRegs
00006080   _ECanaMOTSRegs
000060c0   _ECanaMOTORegs
00006100   _ECanaMboxes
00006200   _ECanbRegs
00006240   _ECanbLAMRegs
00006280   _ECanbMOTSRegs
000062c0   _ECanbMOTORegs
00006300   _ECanbMboxes
00006800   _EPwm1Regs
00006840   _EPwm2Regs
00006880   _EPwm3Regs
000068c0   _EPwm4Regs
00006900   _EPwm5Regs
00006940   _EPwm6Regs
00006a00   _ECap1Regs
00006a20   _ECap2Regs
00006a40   _ECap3Regs
00006a60   _ECap4Regs
00006a80   _ECap5Regs
00006aa0   _ECap6Regs
00006b00   _EQep1Regs
00006b40   _EQep2Regs
00006f80   _GpioCtrlRegs
00006fc0   _GpioDataRegs
00006fe0   _GpioIntRegs
00007010   _SysCtrlRegs
00007040   _SpiaRegs
00007050   _SciaRegs
00007070   _XIntruptRegs
00007100   _AdcRegs
00007750   _ScibRegs
00007770   _ScicRegs
00007900   _I2caRegs
00008000   _InitFlash
00008000   _RamfuncsRunStart
00008023   _DSP28x_usDelay
0000c000   _guiEpwmPeriodCount
0000c001   _gRunFlag
0000c002   _ramp_func_mode
0000c003   _gTripSaveFlag
0000c004   _motor_ctrl_mode
0000c005   _Flag_TripDataBackup
0000c006   _run_input_select
0000c007   _wr_CntlPeriodIndex
0000c008   _EepromSaveFlag
0000c009   _cmdtest
0000c00a   _giAdcAI_I2
0000c00b   _giAdcAI_V2
0000c00c   _giAdcAI_V1
0000c00d   _giAdcAnaCmd
0000c00e   _giAdcAI_I1
0000c00f   _gTripFlag
0000c010   _motor_direction_change
0000c011   _relay_flag
0000c012   _giAdcTemp
0000c013   _scib_rx_msg_flag
0000c014   _giAdcVdc
0000c015   _wr_CycleIndex
0000c016   _code_dac_select_ch2
0000c017   _code_dac_select_ch3
0000c018   _code_protect_IGBT2_off
0000c019   _code_dac_select_ch4
0000c01a   _adc_u_offset
0000c01b   _adc_v_offset
0000c01c   _adc_R_offset
0000c01d   _adc_S_offset
0000c01e   _code_dac_select_ch1
0000c01f   _code_protect_inhibit_on
0000c020   _code_protect_uv_off
0000c021   _terminal_input_state
0000c022   _disp_fnd_mode
0000c023   _protect_reg
0000c024   _code_protect_IGBT_off
0000c025   _code_protect_ex_trip_off
0000c026   _code_protect_over_I_off
0000c027   _code_protect_ov_off
0000c028   _code_protect_Iadc_off
0000c029   _gSciInFlag
0000c02a   _gSciaTxInPoint
0000c02b   _gStartInitFinish
0000c02c   _gSciaTxEndFlag
0000c02d   _AutoTuningFlag
0000c02f   _wr_ctrl_index
0000c030   _gSciaTxOutPoint
0000c031   _giAdcVphase
0000c032   _gControlMode
0000c033   _Jm_ID_ENABLE
0000c034   _gAutoTuningSelect
0000c035   _gPWMTripCode
0000c036   _gTripSavePoint
0000c037   _giAdcUphase
0000c038   _gDeChargeFlag
0000c039   _gMachineState
0000c03a   _debug1
0000c03b   _xcon_data
0000c03c   _init_charge_flag
0000c03d   _giSciCmdAddr
0000c03e   _giSciCmdFunction
0000c040   _code_adc_Vs_R_high
0000c042   _code_dac_offset_ch3
0000c044   _code_dac_scale_ch4
0000c046   _code_dac_scale_ch3
0000c048   _analog_cmd_in_zero2
0000c04a   _analog_cmd_in_span1
0000c04c   _code_dac_scale_ch1
0000c04e   _code_dac_scale_ch2
0000c050   _code_dac_offset_ch2
0000c052   _analog_cmd_in_span2
0000c054   _e_thermal_level
0000c056   _pre_charge_time
0000c058   _under_volt_set
0000c05a   _over_speed_level
0000c05c   _code_adc_vdc_high
0000c05e   _code_adc_vdc_low
0000c060   _code_Vdc_offseter
0000c062   _over_I_time
0000c064   _code_Vdc_scaler
0000c066   _code_Vs_R_scaler
0000c068   _code_Vdc_calc_high
0000c06a   _code_adc_Vs_R_low
0000c06c   _code_Vs_R_offseter
0000c06e   _code_dac_offset_ch1
0000c070   _code_Vdc_calc_low
0000c072   _Is_Max_Coeff
0000c074   _over_current_level
0000c076   _over_volt_set
0000c078   _code_dac_offset_ch4
0000c07a   _accel_time1
0000c07c   _decel_time1
0000c07e   _AnaCmdReference
0000c080   _OverCurLimit
0000c082   _btn_start_ref
0000c084   _jog_speed
0000c086   _accel_time2
0000c088   _decel_time2
0000c08a   _wr_FilterPole
0000c08c   _Req
0000c08e   _Ki_Is
0000c090   _Kp_Is
0000c092   _gdouSciCmdData
0000c094   _func_flag
0000c096   _Leq
0000c098   _gulStartCount
0000c09a   _hyd_decel_time
0000c09c   _Ki_hyd_press
0000c09e   _hyd_idle_ref
0000c0a0   _hyd_max_ref
0000c0a2   _hyd_integal_limit
0000c0a4   _analog_cmd_in_zero1
0000c0a6   _Kp_hyd_press
0000c0a8   _K_damp_hyd_press
0000c0aa   _code_speed2
0000c0ac   _code_speed3
0000c0ae   _min_vf_ref
0000c0b0   _digital_speed2
0000c0b2   _hyd_press_ref
0000c0b4   _hyd_press_ctrl_band
0000c0b6   _code_speed4
0000c0b8   _code_speed5
0000c0ba   _wr_DampingRatio
0000c0bc   _K_Damp_wr
0000c0be   _Base_Flux_Coeff
0000c0c0   _wn_wr_Coeff
0000c0c2   _wr_FilterPoleCoeff
0000c0c4   _FW_VoltageCoeff
0000c0c6   _PM_Fr
0000c0c8   _GM_Fr
0000c0ca   _GM_Is
0000c0cc   _ExcitationTime
0000c0ce   _Max_wn_wr
0000c0d0   _K_Damp_Is
0000c0d2   _K_Damp_Fr
0000c0d4   _AT_DeadTimeGain
0000c0d6   _AT_Time_Rs
0000c0d8   _AT_Freq_Ls
0000c0da   _AT_Is_Coeff_Leq_Req
0000c0dc   _AT_Time_Leq_Req
0000c0de   _AT_Ls_Vs_RAMP
0000c0e0   _AT_Time_Jm
0000c0e2   _AT_Te_Coeff_Jm
0000c0e4   _code_Kp_Is_Coeff
0000c0e6   _AT_Time_Ls
0000c0e8   _AT_Is_Coeff_Rs
0000c0ea   _code_Ki_Is_Coeff
0000c0ec   _AT_Ls_DMB_OpenTime
0000c0ee   _LPF_Is
0000c0f0   _Vs_Coeff_Leq_Req
0000c0f2   _LPF_Vs_Square
0000c0f4   _Data_Init
0000c0f6   _Data_Load
0000c0f8   _LPF_Is_Square
0000c0fa   _inv_Freq_rat
0000c0fc   _Freq_rat
0000c0fe   _Vdc_fnd_data
0000c100   _LPF_Re_Power
0000c102   _GainUpdateTimer
0000c104   _time_t
0000c106   _Is_Leq_Req
0000c108   _GammaLambda_R_Constant
0000c10a   _GammaLambda
0000c10c   _GammaTheta_M
0000c10e   _Default_wr_FilterPole
0000c110   _PM_Is
0000c112   _Max_DeltaLambda
0000c114   _Delta_wr_FilterPoleCoeff_U
0000c116   _Delta_wr_FilterPoleCoeff_L
0000c118   _Data_Backup
0000c11a   _GammaTheta_R
0000c11c   _SlipCompCoeff
0000c11e   _Data_Check
0000c120   _Max_DeltaTheta
0000c122   _motor_rate_power
0000c124   _code_LPF_cutoff_hz_V
0000c126   _motor_rate_current
0000c128   _code_Vs_T_calc_high
0000c12a   _code_Vs_T_calc_low
0000c12c   _motor_rate_volt
0000c12e   _motor_rate_effiency
0000c130   _motor_pole
0000c132   _Rr
0000c134   _motor_rate_hz
0000c136   _code_LPF_cutoff_hz_I
0000c138   _Rs
0000c13a   _motor_rate_rpm
0000c13c   _code_Vs_S_offseter
0000c13e   _code_Vs_S_scaler
0000c140   _code_adc_Vs_S_high
0000c142   _code_Vs_R_calc_low
0000c144   _wp_Is
0000c146   _code_adc_Vs_S_low
0000c148   _code_Vs_T_offseter
0000c14a   _code_Vs_T_scaler
0000c14c   _code_adc_Vs_T_high
0000c14e   _code_Vs_S_calc_low
0000c150   _code_Vs_R_calc_high
0000c152   _code_adc_Vs_T_low
0000c154   _code_Vs_S_calc_high
0000c156   _VF_ExcitationTime
0000c158   _VF_DeadTimeGain
0000c15a   _VF_Freq_TrqBoost
0000c15c   _S_phase_I_sense_zero
0000c15e   _R_phase_I_sense_span
0000c160   _VF_Fs_Coeff
0000c162   _VF_Slip_Comp_FilterPole
0000c164   _VF_IR_Comp_FilterPole
0000c166   _AT_Freq_Leq_Req
0000c168   _VF_Vs_Coeff_TrqBoost
0000c16a   _S_phase_I_sense_span
0000c16c   _VF_Rs
0000c16e   _VF_Rs_ThermalCoeff
0000c170   _I_sense_value
0000c172   _Jm
0000c174   _u_phase_I_sense_span
0000c176   _Lr
0000c178   _Ls
0000c17a   _u_phase_I_sense_zero
0000c17c   _vdc_sense_span
0000c17e   _vdc_sense_zero
0000c180   _R_phase_I_sense_zero
0000c182   _v_phase_I_sense_zero
0000c184   _Lm
0000c186   _igbt_pwm_freq
0000c188   _v_phase_I_sense_span
0000c18a   _inv_code_dac_scale_ch4
0000c18c   _inv_code_dac_scale_ch3
0000c18e   _Vs_T
0000c190   _Vs_R
0000c192   _Vs_S
0000c194   _dac_ch3_unit_count_value
0000c196   _dac_ch2_unit_count_value
0000c198   _Vo
0000c19a   _inv_code_dac_scale_ch2
0000c19c   _inv_code_dac_scale_ch1
0000c19e   _Vdc_factor
0000c1a0   _Vs_T_factor
0000c1a2   _Vs_S_calc_offset
0000c1a4   _Is_T
0000c1a6   _Is_R
0000c1a8   _Is_S
0000c1aa   _Vs_R_factor
0000c1ac   _Vdc_calc_offset
0000c1ae   _prev_I_QS
0000c1b0   _Vs_S_factor
0000c1b2   _Vs_R_calc_offset
0000c1b4   _rpm_err
0000c1b6   _Fs
0000c1b8   _Fs1
0000c1ba   _LPF_Vdc_in
0000c1bc   _Fs_ref
0000c1be   _inv_Fs_ref
0000c1c0   _inv_Fr_ref
0000c1c2   _Fr
0000c1c4   _Fr_ref0
0000c1c6   _inv_Fs
0000c1c8   _Fr_ref
0000c1ca   _Fs_ref0
0000c1cc   _analog_ref_a
0000c1ce   _LPF_Vdc_feed
0000c1d0   _Vs_max_FW
0000c1d2   _dac_ch0_unit_count_value
0000c1d4   _analog_ref_b
0000c1d6   _LPF_Te
0000c1d8   _Max_Trq_Coeff
0000c1da   _Te
0000c1dc   _Te_max
0000c1de   _Te_ref
0000c1e0   _dac_ch1_unit_count_value
0000c1e2   _Is_max
0000c1e4   _Vdc
0000c1e6   _Is_mag_rms
0000c1e8   _Vs_T_calc_offset
0000c1ea   _Is_mag
0000c1ec   _reference_in
0000c1ee   _reference_out
0000c1f0   _rpm
0000c1f2   _Vs_max
0000c1f4   _Freq_out
0000c1f6   _ref_time
0000c1f8   _Re_Power
0000c1fa   _Im_Power
0000c1fc   _Freq_set
0000c1fe   _inv_Ts
0000c200   _gfRunTime
0000c202   _we_rat
0000c204   _inv_motor_rate_hz
0000c206   _inv_Is_rat
0000c208   _Vs_rat
0000c20a   _Is_rat
0000c20c   _Ts
0000c20e   _wr_ErrInt
0000c210   _w_sl
0000c212   _wr_err
0000c214   _wr_ref
0000c216   _wr_ref0
0000c218   _rpm_m
0000c21a   _rpm_ref
0000c21c   _we_FW1
0000c21e   _w_sl0
0000c220   _we_FW
0000c222   _wr
0000c224   _we0
0000c226   _frequency
0000c228   _we
0000c22a   _reference1
0000c22c   _we_in
0000c22e   _wr_m
0000c230   _wr_m0
0000c232   _CosTheta
0000c234   _theta
0000c236   _SinTheta
0000c238   _inv_Ls
0000c23a   _Tr
0000c23c   _inv_sigma_Ls
0000c23e   _sigma_minus_1_div_sigma_Ls
0000c240   _LPF_Ib_out
0000c242   _Lm_div_Lr
0000c244   _Lr_div_Lm
0000c246   _sigma_Ls_div_1_plus_sigma
0000c248   _inv_Tr
0000c24a   _inv_Ls_plus_sigma_Ls
0000c24c   _sigma_Tr
0000c24e   _rpm_Coeff
0000c250   _LPF_Ib_feed
0000c252   _inv_P_pair
0000c254   _LPF_Vdc_out
0000c256   _P_pair
0000c258   _SlipCoeff
0000c25a   _inv_sigma_Tr
0000c25c   _sigma_Ls
0000c25e   _LPF_Ib_in
0000c260   _sigma
0000c262   _inv_Kt
0000c264   _pCoeff_I1
0000c266   _pCoeff_I2
0000c268   _Fs_B
0000c26a   _pCoeff_V1
0000c26c   _wp_Is_Coeff
0000c26e   _Kp_Is_Coeff
0000c270   _inv_GM_Is
0000c272   _inv_Fs_B
0000c274   _inv_GM_Is_square_minus_1
0000c276   _Ki_wr
0000c278   _LPF_Ia_feed
0000c27a   _LPF_Ia_in
0000c27c   _S_rat
0000c27e   _I_QS_rat
0000c280   _inv_I_QS_rat
0000c282   _Freq_slip_rat
0000c284   _Kp_wr
0000c286   _pCoeff_V2
0000c288   _S_lin
0000c28a   _LPF_Ia_out
0000c28c   _wn_wr
0000c28e   _Pf
0000c290   _sgn_I_QS
0000c292   _wr_Cycle
0000c294   _Vs_IR_comp
0000c296   _del_Vs_comp
0000c298   _I_DS_err
0000c29a   _DeltaLambda
0000c29c   _I_DS0
0000c29e   _Delta_wr
0000c2a0   _I_DS0_0
0000c2a2   _Power_gap
0000c2a4   _theta_m
0000c2a6   _Vs_ref
0000c2a8   _Fr_ErrInt
0000c2aa   _inv_Fr
0000c2ac   _Fr_Err
0000c2ae   _Power_core
0000c2b0   _Power_core_rat
0000c2b2   _Slip
0000c2b4   _Freq_ref
0000c2b6   _Freq_slip
0000c2b8   _reference0
0000c2ba   _wr_rat
0000c2bc   _wm_rat
0000c2be   _inv_motor_rat_hz
0000c2c0   _C_ce
0000c2c2   _inv_C_ce
0000c2c4   _Fr_rat
0000c2c6   _Kt
0000c2c8   _Fs_rat
0000c2ca   _Te_rat
0000c2cc   _inv_Te_rat
0000c2ce   _C_ce_nF
0000c2d0   _SinDeltaTheta
0000c2d2   _SinTheta1
0000c2d4   _CosDeltaTheta
0000c2d6   _SinCosDeltaTheta
0000c2d8   _inv_SinCosDeltaTheta
0000c2da   _IncRef
0000c2dc   _DecRef
0000c2de   _IncScanRef
0000c2e0   _CosTheta1
0000c2e2   _Delta_wr_Filter_Pole
0000c2e4   _DeltaTheta
0000c2e6   _DutyCount
0000c2ea   _Vs_DQ_max
0000c2ee   _Vs_DQ_ref
0000c2f2   _Vs_DQ
0000c2f6   _Vs_dq
0000c2fa   _Us_dq
0000c300   _Vs_DQ_ref_PI
0000c304   _Fs_dq
0000c308   _Vs_DQ_ref_P
0000c30c   _Jm_SampleData
0000c310   _Vs_DQ_comp
0000c314   _Vs_dq_ref
0000c318   _Is_DQ_ref
0000c31c   _Is_DQ_ErrInt
0000c320   _Is_DQ
0000c324   _Is_DQ_max
0000c328   _Is_dq_ref
0000c32c   _Is_dq
0000c330   _Is_dq_ErrInt
0000c334   _Is_abc
0000c33a   _DutyRatio
0000c340   _Vs_abc_ref
0000c346   _sgn_Is
0000c34c   _Vs_abc
0000c352   _Jm_ID_Te
0000c35a   _Jm_ID_wr
0000c362   _Jm_ID_t
0000c36a   _gStr2
0000c380   _adc_result
0000c390   _gSciaRxBuf
0000c3a1   _gSciaTxBuf
0000c3c0   _MonitorMsg
0000c400   _gStr1
0000c440   _code_inform
0000c480   _TripInfo
0000c500   _TripInfoNow
0000c580   _dac_point
0000c648   _CpuTimer1
0000c650   _CpuTimer2
0000c658   _CpuTimer0
0000c676   _Dd
0000c678   _T_d
0000c67a   _delta_Tc
0000c67c   __cleanup_ptr
0000c67e   __dtors_ptr
0000c680   _scib_tx_end_addr
0000c681   _scib_tx_start_addr
0000c683   _scib_rx_end_addr
0000c684   _scib_rx_start_addr
0000c688   _TimeInput
0000c6a6   _scib_rx_msg_box
0000c6c0   _scib_tx_msg_box
0000c72a   __unlock
0000c72c   __lock
0000c738   _errno
0000c739   _PartIdRegs
00100000   _ZONE6_BUF
00200000   _ZONE7_BUF
00318000   .text
00318000   ___text__
00318000   _sqrt
00318020   _get_code_group0
003182df   _get_code_group1
003184d5   _get_code_group2
0031870b   _get_code_group3
00318b92   _get_code_group4
00318d80   _get_code_group5
00318fb5   _get_code_group6
003192ea   _get_code_group7
0031965b   _get_code_group8
003196be   _estim_ReqLeq_pwm
003199dc   _estim_Rs_pwm
00319ac9   _estim_Ls_pwm
0031a0da   _estim_Jm_pwm
0031a258   _estim_req_leq_loop
0031a49a   _estim_Rs_loop
0031a53c   _estim_Ls_loop
0031a8ba   _estim_Jm_loop
0031ac08   _parameter_estimation
0031b5de   __printfi
0031b6e4   _SL_SpeedCntl_SFRF
0031b7ae   _SL_TorqueCntl_SFRF
0031b7df   _SL_VectCntl_SFRF
0031bffe   _HardwareParameterVerification
0031c1b2   _COMMON_VECT_CNTL_ParameterVerification
0031c4c8   _COMMON_SL_VECT_CNTL_ParameterVerification
0031c624   _SL_TORQUE_CNTL_Parameter
0031c633   _SL_SPEED_CNTL_Parameter
0031c780   _scib_fifo_init
0031c7d7   _scib_tx_msg
0031c7ed   _load_scib_tx_mail_box_char
0031c810   _load_scib_tx_mail_box
0031c82f   _scibTxFifoIsr
0031c88b   _scibRxFifoIsr
0031c90a   _scib_cmd_proc
0031cdcf   _trip_recording
0031ce01   _CheckOverCurrent
0031ceb5   _CheckOverVolt
0031cee4   _CheckUndeVolt
0031cf15   _CheckOverSpeed
0031cf48   _CheckIGBTFault
0031cf8e   _CheckIGBTFault2
0031cfd4   _CheckOverHeat
0031cff2   _trip_check
0031d018   _TripProc
0031d164   _GetTripInfo
0031d249   _WriteTripString
0031d27e   _ReadTripString
0031d2a2   _SaveTripDataToEeprom
0031d315   _ClearTripDataToEeprom
0031d386   _get_code_information
0031d3e2   _set_code_default_int
0031d3fd   _set_code_default_double
0031d41d   _check_backup_data
0031d467   _save_backup_data
0031d49e   _backup_data_load
0031d4ef   _CheckSum
0031d4f1   _CheckSum_bk
0031d528   _SaveDataProc
0031d6d4   _init_eprom_data
0031d74e   _SpaceVectorModulation
0031d9e1   _VoltageEstimation
0031db13   _InitGpio
0031de20   _InitXintf
0031deb4   _InitAdc
0031df18   _Adc_Isr
0031e208   _analog_input_proc
0031e211   _analog_out_proc
0031e212   _check_sensor_trip
0031e235   _LPF_COEFF_CAL
0031e269   _LPF_V
0031e292   _LPF_I
0031e2cb   _linear_eq
0031e306   _LPF1
0031e325   _Nop
0031e328   _PI_Damp_Controller
0031e38e   _SetSensorOffset
0031e38f   _PowerOnReset
0031e390   _ulGetTime_mSec
0031e3a7   _ulGetNow_mSec
0031e3ab   _delay_msecs
0031e3be   _periodic_check
0031e3d2   _iGetAinCmd
0031e3df   _analog_cmd_proc
0031e3f0   _get_command
0031e445   _get_adc_offset
0031e4ec   _get_adc_vdc_low
0031e548   _get_adc_vdc_high
0031e5a4   _I2CA_Init
0031e5b6   _I2CA_WriteData
0031e613   _I2CA_ReadData
0031e67c   _get_eprom_address
0031e6de   _write_code_2_eeprom
0031e713   _read_eprom_data
0031e755   _data_under_proc
0031e799   _data_over_proc
0031e7dd   _invalid_address_proc
0031e806   _check_code_data
0031e855   _load_code2ram
0031e8ce   _main
0031ea8c   _InitEPwm_ACIM_Inverter
0031ebbc   _wakeint_isr
0031ebd0   _InitWatchDog
0031ebee   _INT13_ISR
0031ebf8   _INT14_ISR
0031ec02   _DATALOG_ISR
0031ec0c   _RTOSINT_ISR
0031ec16   _EMUINT_ISR
0031ec20   _NMI_ISR
0031ec2a   _ILLEGAL_ISR
0031ec34   _USER1_ISR
0031ec3e   _USER2_ISR
0031ec48   _USER3_ISR
0031ec52   _USER4_ISR
0031ec5c   _USER5_ISR
0031ec66   _USER6_ISR
0031ec70   _USER7_ISR
0031ec7a   _USER8_ISR
0031ec84   _USER9_ISR
0031ec8e   _USER10_ISR
0031ec98   _USER11_ISR
0031eca2   _USER12_ISR
0031ecac   _SEQ1INT_ISR
0031ecb6   _SEQ2INT_ISR
0031ecc0   _XINT1_ISR
0031ecca   _XINT2_ISR
0031ecd4   _ADCINT_ISR
0031ecde   _TINT0_ISR
0031ece8   _WAKEINT_ISR
0031ecf2   _EPWM1_TZINT_ISR
0031ecfc   _EPWM2_TZINT_ISR
0031ed06   _EPWM3_TZINT_ISR
0031ed10   _EPWM4_TZINT_ISR
0031ed1a   _EPWM5_TZINT_ISR
0031ed24   _EPWM6_TZINT_ISR
0031ed2e   _EPWM1_INT_ISR
0031ed38   _EPWM2_INT_ISR
0031ed42   _EPWM3_INT_ISR
0031ed4c   _EPWM4_INT_ISR
0031ed56   _EPWM5_INT_ISR
0031ed60   _EPWM6_INT_ISR
0031ed6a   _ECAP1_INT_ISR
0031ed74   _ECAP2_INT_ISR
0031ed7e   _ECAP3_INT_ISR
0031ed88   _ECAP4_INT_ISR
0031ed92   _ECAP5_INT_ISR
0031ed9c   _ECAP6_INT_ISR
0031eda6   _EQEP1_INT_ISR
0031edb0   _EQEP2_INT_ISR
0031edba   _SPIRXINTA_ISR
0031edc4   _SPITXINTA_ISR
0031edce   _MRINTB_ISR
0031edd8   _MXINTB_ISR
0031ede2   _MRINTA_ISR
0031edec   _MXINTA_ISR
0031edf6   _DINTCH1_ISR
0031ee00   _DINTCH2_ISR
0031ee0a   _DINTCH3_ISR
0031ee14   _DINTCH4_ISR
0031ee1e   _DINTCH5_ISR
0031ee28   _DINTCH6_ISR
0031ee32   _I2CINT1A_ISR
0031ee3c   _I2CINT2A_ISR
0031ee46   _SCIRXINTC_ISR
0031ee50   _SCITXINTC_ISR
0031ee5a   _SCIRXINTA_ISR
0031ee64   _SCITXINTA_ISR
0031ee6e   _SCIRXINTB_ISR
0031ee78   _SCITXINTB_ISR
0031ee82   _ECAN0INTA_ISR
0031ee8c   _ECAN1INTA_ISR
0031ee96   _ECAN0INTB_ISR
0031eea0   _ECAN1INTB_ISR
0031eeaa   _XINT3_ISR
0031eeb4   _XINT4_ISR
0031eebe   _XINT5_ISR
0031eec8   _XINT6_ISR
0031eed2   _XINT7_ISR
0031eedc   _LVF_ISR
0031eee6   _LUF_ISR
0031eef0   _PIE_RESERVED
0031eefa   _rsvd_ISR
0031ef04   _VariableInitialization
0031f204   _hyd_ramp_proc
0031f28f   _hyd_unit_proc
0031f2c7   _hyd_unit_proc_bk
0031f361   _hyd_unit_loop_proc
0031f416   _hyd_unit_control
0031f4e0   _free
0031f529   _minit
0031f554   _malloc
0031f5af   _realloc
0031f677   _max_free
0031f699   _free_memory
0031f6b7   _chkheap
0031f6b9   _calloc
0031f6d4   _vf_loop_control
0031f806   _vf_frequency_control
0031f80d   _vf_simple_control
0031f8b6   _MotorControlProc
0031f901   _MainPWM
0031f9f2   _GetAnaMonitCount
0031fa65   _InitSysCtrl
0031fa6e   _ServiceDog
0031fa78   _DisableDog
0031fa80   _InitPll
0031fad3   _InitPeripheralClocks
0031fb83   _CsmUnlock
0031fbb4   _strtod
0031fcec   _set_dac_point
0031fe1a   _fault_reset
0031fe20   _driver_enable_proc
0031fe23   _input_ai_ref_active_proc
0031fe26   _input_ai_local_remote_proc
0031fe29   _input_ext_fault_b_proc
0031fe2c   _input_motor_select_proc
0031fe2f   _input_mb_brake_state_proc
0031fe32   _input_acel_decel_switch_proc
0031fe35   _input_ref_tunning_inc_proc
0031fe38   _input_ref_tunning_dec_proc
0031fe3b   _input_acc_dec_byp_proc
0031fe3e   _input_ext_fault_a_proc
0031fe4d   _digital_input_proc
0031fe8a   _digital_port_check
0031feeb   _digital_out_proc
0031ff37   _DS1307WriteData
0031ff60   _DS1307ReadData
0031ff8c   _GetTimeAndDateStr
0031fffd   _WriteTimeToDS1307
0032004f   _test_run
00320158   LL$$DIV
00320194   LL$$MOD
003201ce   ULL$$DIV
003201fd   ULL$$MOD
0032025f   _RefFunc
00320352   _ramp_proc
00320366   _dac8412_out
00320468   FD$$ADD
00320504   _InitCpuTimers
00320550   _ConfigCpuTimer
00320597   FD$$DIV
00320622   FS$$DIV
003206aa   _cpu_timer0_isr
0032072f   FD$$MPY
003207b2   _cos
00320813   _sin
00320872   _snprintf
003208dd   _monitor_proc
00320915   _GetInputMark
0032091f   _c_int00
00320965   _atoi
00320996   _ltoa
003209c4   L$$DIV
003209d3   L$$MOD
003209e1   UL$$DIV
003209e8   UL$$MOD
003209ee   FD$$CMP
00320a18   _InitPieCtrl
00320a37   _EnableInterrupts
00320a42   I$$DIV
00320a53   I$$MOD
00320a64   _InitPieVectTable
00320a86   FD$$TOI
00320aa7   ___memcpy_ff
00320ac8   _strncpy
00320ae8   FD$$TOL
00320b07   LL$$CMP
00320b19   ULL$$CMP
00320b25   L$$TOFD
00320b41   FS$$TOFD
00320b5d   _modf
00320b77   _serial_com_proc
00320b91   C$$EXIT
00320b91   _abort
00320b93   _exit
00320ba9   _MemCopy
00320bc0   __args_main
00320bd5   LL$$MPY
00320be9   _memccpy
00320bfb   FD$$SUB
00320c09   _strlen
00320c13   __register_unlock
00320c17   __register_lock
00320c1b   __nop
00320c1c   _strcpy
00320c25   FD$$NEG
00320c36   _memset
00320c3d   _RamfuncsLoadStart
00320c3d   ___etext__
00320c3d   etext
00320c64   _RamfuncsLoadEnd
0033950a   _PieVectTableInit
00339950   __ctypes_
00339a51   ___cinit__
00339a51   cinit
0033fff6   code_start
0033fff8   _CsmPwl
00380080   _ADC_cal
ffffffff   ___TI_pprof_out_hndl
ffffffff   ___TI_prof_var_size
ffffffff   ___TI_prof_var_start
ffffffff   ___binit__
ffffffff   ___c_args__
ffffffff   ___pinit__
ffffffff   binit
ffffffff   pinit

[831 symbols]
